(lp0
S'United States'
p1
aS'Afghanistan'
p2
aS'Albania'
p3
aS'Algeria'
p4
aS'Andorra'
p5
aS'Angola'
p6
aS'Antigua and Barbuda'
p7
aS'Argentina'
p8
aS'Armenia'
p9
aS'Australia'
p10
aS'Austria'
p11
aS'Azerbaijan'
p12
aS'Bahamas'
p13
aS'Bahrain'
p14
aS'Bangladesh'
p15
aS'Barbados'
p16
aS'Belarus'
p17
aS'Belgium'
p18
aS'Belize'
p19
aS'Benin'
p20
aS'Bhutan'
p21
aS'Bolivia'
p22
aS'Bosnia and Herzegovina'
p23
aS'Botswana'
p24
aS'Brazil'
p25
aS'Brunei'
p26
aS'Bulgaria'
p27
aS'Burkina Faso'
p28
aS'Burundi'
p29
aS'Cambodia'
p30
aS'Cameroon'
p31
aS'Canada'
p32
aS'Cape Verde'
p33
aS'Central African Republic'
p34
aS'Chad'
p35
aS'Chile'
p36
aS'China'
p37
aS'Colombia'
p38
aS'Comoros'
p39
aS'Congo - Kinshasa'
p40
aS'Congo - Brazzaville'
p41
aS'Costa Rica'
p42
aS"Cote d'Ivoire"
p43
aS'Croatia'
p44
aS'Cuba'
p45
aS'Cyprus'
p46
aS'Czech Republic'
p47
aS'Denmark'
p48
aS'Djibouti'
p49
aS'Dominica'
p50
aS'Dominican Republic'
p51
aS'Ecuador'
p52
aS'Egypt'
p53
aS'El Salvador'
p54
aS'Equatorial Guinea'
p55
aS'Eritrea'
p56
aS'Estonia'
p57
aS'Ethiopia'
p58
aS'Fiji'
p59
aS'Finland'
p60
aS'France'
p61
aS'Gabon'
p62
aS'Gambia'
p63
aS'Georgia'
p64
aS'Germany'
p65
aS'Ghana'
p66
aS'Greece'
p67
aS'Grenada'
p68
aS'Guatemala'
p69
aS'Guinea'
p70
aS'Guinea-Bissau'
p71
aS'Guyana'
p72
aS'Haiti'
p73
aS'Honduras'
p74
aS'Hungary'
p75
aS'Iceland'
p76
aS'India'
p77
aS'Indonesia'
p78
aS'Iran'
p79
aS'Iraq'
p80
aS'Ireland'
p81
aS'Israel'
p82
aS'Italy'
p83
aS'Jamaica'
p84
aS'Japan'
p85
aS'Jordan'
p86
aS'Kazakhstan'
p87
aS'Kenya'
p88
aS'Kiribati'
p89
aS'North Korea'
p90
aS'South Korea'
p91
aS'Kuwait'
p92
aS'Kyrgyzstan'
p93
aS'Laos'
p94
aS'Latvia'
p95
aS'Lebanon'
p96
aS'Lesotho'
p97
aS'Liberia'
p98
aS'Libya'
p99
aS'Liechtenstein'
p100
aS'Lithuania'
p101
aS'Luxembourg'
p102
aS'Macedonia'
p103
aS'Madagascar'
p104
aS'Malawi'
p105
aS'Malaysia'
p106
aS'Maldives'
p107
aS'Mali'
p108
aS'Malta'
p109
aS'Marshall Islands'
p110
aS'Mauritania'
p111
aS'Mauritius'
p112
aS'Mexico'
p113
aS'Micronesia'
p114
aS'Moldova'
p115
aS'Monaco'
p116
aS'Mongolia'
p117
aS'Montenegro'
p118
aS'Morocco'
p119
aS'Mozambique'
p120
aS'Myanmar (Burma)'
p121
aS'Namibia'
p122
aS'Nauru'
p123
aS'Nepal'
p124
aS'Netherlands'
p125
aS'New Zealand'
p126
aS'Nicaragua'
p127
aS'Niger'
p128
aS'Nigeria'
p129
aS'Norway'
p130
aS'Oman'
p131
aS'Pakistan'
p132
aS'Palau'
p133
aS'Panama'
p134
aS'Papua New Guinea'
p135
aS'Paraguay'
p136
aS'Peru'
p137
aS'Philippines'
p138
aS'Poland'
p139
aS'Portugal'
p140
aS'Qatar'
p141
aS'Romania'
p142
aS'Russia'
p143
aS'Rwanda'
p144
aS'Saint Kitts and Nevis'
p145
aS'Saint Lucia'
p146
aS'Saint Vincent and the Grenadines'
p147
aS'Samoa'
p148
aS'San Marino'
p149
aS'Sao Tome and Principe'
p150
aS'Saudi Arabia'
p151
aS'Senegal'
p152
aS'Serbia'
p153
aS'Seychelles'
p154
aS'Sierra Leone'
p155
aS'Singapore'
p156
aS'Slovakia'
p157
aS'Slovenia'
p158
aS'Solomon Islands'
p159
aS'Somalia'
p160
aS'South Africa'
p161
aS'Spain'
p162
aS'Sri Lanka'
p163
aS'Sudan'
p164
aS'Suriname'
p165
aS'Swaziland'
p166
aS'Sweden'
p167
aS'Switzerland'
p168
aS'Syria'
p169
aS'Tajikistan'
p170
aS'Tanzania'
p171
aS'Thailand'
p172
aS'Timor-Leste (East Timor)'
p173
aS'Togo'
p174
aS'Tonga'
p175
aS'Trinidad and Tobago'
p176
aS'Tunisia'
p177
aS'Turkey'
p178
aS'Turkmenistan'
p179
aS'Tuvalu'
p180
aS'Uganda'
p181
aS'Ukraine'
p182
aS'United Arab Emirates'
p183
aS'United Kingdom'
p184
aS'Uruguay'
p185
aS'Uzbekistan'
p186
aS'Vanuatu'
p187
aS'Vatican City'
p188
aS'Venezuela'
p189
aS'Vietnam'
p190
aS'Yemen'
p191
aS'Zambia'
p192
aS'Zimbabwe'
p193
aS'Abkhazia'
p194
aS'Taiwan'
p195
aS'Nagorno-Karabakh'
p196
aS'Northern Cyprus'
p197
aS'Pridnestrovie (Transnistria)'
p198
aS'Somaliland'
p199
aS'South Ossetia'
p200
aS'Ashmore and Cartier Islands'
p201
aS'Christmas Island'
p202
aS'Cocos (Keeling) Islands'
p203
aS'Coral Sea Islands'
p204
aS'Heard Island and McDonald Islands'
p205
aS'Norfolk Island'
p206
aS'New Caledonia'
p207
aS'French Polynesia'
p208
aS'Mayotte'
p209
aS'Saint Barthelemy'
p210
aS'Saint Martin'
p211
aS'Saint Pierre and Miquelon'
p212
aS'Wallis and Futuna'
p213
aS'French Southern and Antarctic Lands'
p214
aS'Clipperton Island'
p215
aS'Bouvet Island'
p216
aS'Cook Islands'
p217
aS'Niue'
p218
aS'Tokelau'
p219
aS'Guernsey'
p220
aS'Isle of Man'
p221
aS'Jersey'
p222
aS'Anguilla'
p223
aS'Bermuda'
p224
aS'British Indian Ocean Territory'
p225
aS'British Sovereign Base Areas'
p226
aS'British Virgin Islands'
p227
aS'Cayman Islands'
p228
aS'Falkland Islands (Islas Malvinas)'
p229
aS'Gibraltar'
p230
aS'Montserrat'
p231
aS'Pitcairn Islands'
p232
aS'Saint Helena'
p233
aS'South Georgia & South Sandwich Islands'
p234
aS'Turks and Caicos Islands'
p235
aS'Northern Mariana Islands'
p236
aS'Puerto Rico'
p237
aS'American Samoa'
p238
aS'Baker Island'
p239
aS'Guam'
p240
aS'Howland Island'
p241
aS'Jarvis Island'
p242
aS'Johnston Atoll'
p243
aS'Kingman Reef'
p244
aS'Midway Islands'
p245
aS'Navassa Island'
p246
aS'Palmyra Atoll'
p247
aS'U.S. Virgin Islands'
p248
aS'Wake Island'
p249
aS'Hong Kong'
p250
aS'Macau'
p251
aS'Faroe Islands'
p252
aS'Greenland'
p253
aS'French Guiana'
p254
aS'Guadeloupe'
p255
aS'Martinique'
p256
aS'Reunion'
p257
aS'Aland'
p258
aS'Aruba'
p259
aS'Netherlands Antilles'
p260
aS'Svalbard'
p261
aS'Ascension'
p262
aS'Tristan da Cunha'
p263
aS'Australian Antarctic Territory'
p264
aS'Ross Dependency'
p265
aS'Peter I Island'
p266
aS'Queen Maud Land'
p267
aS'British Antarctic Territory'
p268
a.