(lp0
S'Egypt editor warns of break in ties with Italy over student'
p1
aS'The editor of Egypt\xe2\x80\x99s top state newspaper called on authorities on Sunday to seriously deal with the case of an Italian student tortured and killed in Cairo, saying officials who didn\xe2\x80\x99t realize the gravity of the case are risking a break in Egyptian-Italian relations.<br clear=\'all\'/><br/><br/><a href="http://rc.feedsportal.com/r/247396824919/u/75/f/636708/c/34656/s/4eb144bd/sc/7/rc/1/rc.htm" rel="nofollow"><img src="http://rc.feedsportal.com/r/247396824919/u/75/f/636708/c/34656/s/4eb144bd/sc/7/rc/1/rc.img" border="0"/></a><br/><br/><a href="http://rc.feedsportal.com/r/247396824919/u/75/f/636708/c/34656/s/4eb144bd/sc/7/rc/2/rc.htm" rel="nofollow"><img src="http://rc.feedsportal.com/r/247396824919/u/75/f/636708/c/34656/s/4eb144bd/sc/7/rc/2/rc.img" border="0"/></a><br/><br/><a href="http://rc.feedsportal.com/r/247396824919/u/75/f/636708/c/34656/s/4eb144bd/sc/7/rc/3/rc.htm" rel="nofollow"><img src="http://rc.feedsportal.com/r/247396824919/u/75/f/636708/c/34656/s/4eb144bd/sc/7/rc/3/rc.img" border="0"/></a><br/><br/><a href="http://da.feedsportal.com/r/247396824919/u/75/f/636708/c/34656/s/4eb144bd/sc/7/a2.htm"><img src="http://da.feedsportal.com/r/247396824919/u/75/f/636708/c/34656/s/4eb144bd/sc/7/a2.img" border="0"/></a><br/><a href="http://adchoice.feedsportal.com/r/247396824919/u/75/f/636708/c/34656/s/4eb144bd/sc/7/ach.htm"><img src="http://adchoice.feedsportal.com/r/247396824919/u/75/f/636708/c/34656/s/4eb144bd/sc/7/ach.img" border="0"/></a><img width="1" height="1" src="http://pi.feedsportal.com/r/247396824919/u/75/f/636708/c/34656/s/4eb144bd/sc/7/a2t.img" border="0"/><img width="1" height="1" src="http://pi2.feedsportal.com/r/247396824919/u/75/f/636708/c/34656/s/4eb144bd/sc/7/a2t2.img" border="0"/><img width=\'1\' height=\'1\' src=\'http://feeds.washingtonpost.com/c/34656/f/636708/s/4eb144bd/sc/7/mf.gif\' border=\'0\'/>'
p2
aS'India\xe2\x80\x99s prime minister in Saudi Arabia for first visit'
p3
aS'India\xe2\x80\x99s Prime Minister Narendra Modi met with Saudi King Salman on Sunday during his first official visit to the kingdom, home to a large number of Indian laborers and a major trade partner that supplies around 19 percent of India\xe2\x80\x99s crude oil imports.<br clear=\'all\'/><br/><br/><a href="http://rc.feedsportal.com/r/247396819668/u/75/f/636708/c/34656/s/4eb10753/sc/7/rc/1/rc.htm" rel="nofollow"><img src="http://rc.feedsportal.com/r/247396819668/u/75/f/636708/c/34656/s/4eb10753/sc/7/rc/1/rc.img" border="0"/></a><br/><br/><a href="http://rc.feedsportal.com/r/247396819668/u/75/f/636708/c/34656/s/4eb10753/sc/7/rc/2/rc.htm" rel="nofollow"><img src="http://rc.feedsportal.com/r/247396819668/u/75/f/636708/c/34656/s/4eb10753/sc/7/rc/2/rc.img" border="0"/></a><br/><br/><a href="http://rc.feedsportal.com/r/247396819668/u/75/f/636708/c/34656/s/4eb10753/sc/7/rc/3/rc.htm" rel="nofollow"><img src="http://rc.feedsportal.com/r/247396819668/u/75/f/636708/c/34656/s/4eb10753/sc/7/rc/3/rc.img" border="0"/></a><br/><br/><a href="http://da.feedsportal.com/r/247396819668/u/75/f/636708/c/34656/s/4eb10753/sc/7/a2.htm"><img src="http://da.feedsportal.com/r/247396819668/u/75/f/636708/c/34656/s/4eb10753/sc/7/a2.img" border="0"/></a><br/><a href="http://adchoice.feedsportal.com/r/247396819668/u/75/f/636708/c/34656/s/4eb10753/sc/7/ach.htm"><img src="http://adchoice.feedsportal.com/r/247396819668/u/75/f/636708/c/34656/s/4eb10753/sc/7/ach.img" border="0"/></a><img width="1" height="1" src="http://pi.feedsportal.com/r/247396819668/u/75/f/636708/c/34656/s/4eb10753/sc/7/a2t.img" border="0"/><img width="1" height="1" src="http://pi2.feedsportal.com/r/247396819668/u/75/f/636708/c/34656/s/4eb10753/sc/7/a2t2.img" border="0"/><img width=\'1\' height=\'1\' src=\'http://feeds.washingtonpost.com/c/34656/f/636708/s/4eb10753/sc/7/mf.gif\' border=\'0\'/>'
p4
aS'Poles protest possibility of total ban on abortion'
p5
aS'Thousands of Poles took part in street demonstrations on Sunday to protest a possible tightening of the country\xe2\x80\x99s abortion law, already one of the most restrictive in Europe.<br clear=\'all\'/><br/><br/><a href="http://rc.feedsportal.com/r/247396812622/u/75/f/636708/c/34656/s/4eb0af21/sc/7/rc/1/rc.htm" rel="nofollow"><img src="http://rc.feedsportal.com/r/247396812622/u/75/f/636708/c/34656/s/4eb0af21/sc/7/rc/1/rc.img" border="0"/></a><br/><br/><a href="http://rc.feedsportal.com/r/247396812622/u/75/f/636708/c/34656/s/4eb0af21/sc/7/rc/2/rc.htm" rel="nofollow"><img src="http://rc.feedsportal.com/r/247396812622/u/75/f/636708/c/34656/s/4eb0af21/sc/7/rc/2/rc.img" border="0"/></a><br/><br/><a href="http://rc.feedsportal.com/r/247396812622/u/75/f/636708/c/34656/s/4eb0af21/sc/7/rc/3/rc.htm" rel="nofollow"><img src="http://rc.feedsportal.com/r/247396812622/u/75/f/636708/c/34656/s/4eb0af21/sc/7/rc/3/rc.img" border="0"/></a><br/><br/><a href="http://da.feedsportal.com/r/247396812622/u/75/f/636708/c/34656/s/4eb0af21/sc/7/a2.htm"><img src="http://da.feedsportal.com/r/247396812622/u/75/f/636708/c/34656/s/4eb0af21/sc/7/a2.img" border="0"/></a><br/><a href="http://adchoice.feedsportal.com/r/247396812622/u/75/f/636708/c/34656/s/4eb0af21/sc/7/ach.htm"><img src="http://adchoice.feedsportal.com/r/247396812622/u/75/f/636708/c/34656/s/4eb0af21/sc/7/ach.img" border="0"/></a><img width="1" height="1" src="http://pi.feedsportal.com/r/247396812622/u/75/f/636708/c/34656/s/4eb0af21/sc/7/a2t.img" border="0"/><img width="1" height="1" src="http://pi2.feedsportal.com/r/247396812622/u/75/f/636708/c/34656/s/4eb0af21/sc/7/a2t2.img" border="0"/><img width=\'1\' height=\'1\' src=\'http://feeds.washingtonpost.com/c/34656/f/636708/s/4eb0af21/sc/7/mf.gif\' border=\'0\'/>'
p6
aS'Austrian police clash with people protesting border closure'
p7
aS'Austrian police have clashed with protesters demonstrating against the closure of Europe\xe2\x80\x99s borders to migrants.<br clear=\'all\'/><br/><br/><a href="http://rc.feedsportal.com/r/247396822233/u/75/f/636708/c/34656/s/4eb13964/sc/7/rc/1/rc.htm" rel="nofollow"><img src="http://rc.feedsportal.com/r/247396822233/u/75/f/636708/c/34656/s/4eb13964/sc/7/rc/1/rc.img" border="0"/></a><br/><br/><a href="http://rc.feedsportal.com/r/247396822233/u/75/f/636708/c/34656/s/4eb13964/sc/7/rc/2/rc.htm" rel="nofollow"><img src="http://rc.feedsportal.com/r/247396822233/u/75/f/636708/c/34656/s/4eb13964/sc/7/rc/2/rc.img" border="0"/></a><br/><br/><a href="http://rc.feedsportal.com/r/247396822233/u/75/f/636708/c/34656/s/4eb13964/sc/7/rc/3/rc.htm" rel="nofollow"><img src="http://rc.feedsportal.com/r/247396822233/u/75/f/636708/c/34656/s/4eb13964/sc/7/rc/3/rc.img" border="0"/></a><br/><br/><a href="http://da.feedsportal.com/r/247396822233/u/75/f/636708/c/34656/s/4eb13964/sc/7/a2.htm"><img src="http://da.feedsportal.com/r/247396822233/u/75/f/636708/c/34656/s/4eb13964/sc/7/a2.img" border="0"/></a><br/><a href="http://adchoice.feedsportal.com/r/247396822233/u/75/f/636708/c/34656/s/4eb13964/sc/7/ach.htm"><img src="http://adchoice.feedsportal.com/r/247396822233/u/75/f/636708/c/34656/s/4eb13964/sc/7/ach.img" border="0"/></a><img width="1" height="1" src="http://pi.feedsportal.com/r/247396822233/u/75/f/636708/c/34656/s/4eb13964/sc/7/a2t.img" border="0"/><img width="1" height="1" src="http://pi2.feedsportal.com/r/247396822233/u/75/f/636708/c/34656/s/4eb13964/sc/7/a2t2.img" border="0"/><img width=\'1\' height=\'1\' src=\'http://feeds.washingtonpost.com/c/34656/f/636708/s/4eb13964/sc/7/mf.gif\' border=\'0\'/>'
p8
aS'US senator tells Arab world: US hasn\xe2\x80\x99t changed despite Trump'
p9
aS'Residents of the Middle East should not be too alarmed at the prospect of Donald Trump becoming president, Republican Sen. Lindsey Graham told reporters in Cairo on Sunday.<br clear=\'all\'/><br/><br/><a href="http://rc.feedsportal.com/r/247396778217/u/75/f/636708/c/34656/s/4eb0e0fb/sc/7/rc/1/rc.htm" rel="nofollow"><img src="http://rc.feedsportal.com/r/247396778217/u/75/f/636708/c/34656/s/4eb0e0fb/sc/7/rc/1/rc.img" border="0"/></a><br/><br/><a href="http://rc.feedsportal.com/r/247396778217/u/75/f/636708/c/34656/s/4eb0e0fb/sc/7/rc/2/rc.htm" rel="nofollow"><img src="http://rc.feedsportal.com/r/247396778217/u/75/f/636708/c/34656/s/4eb0e0fb/sc/7/rc/2/rc.img" border="0"/></a><br/><br/><a href="http://rc.feedsportal.com/r/247396778217/u/75/f/636708/c/34656/s/4eb0e0fb/sc/7/rc/3/rc.htm" rel="nofollow"><img src="http://rc.feedsportal.com/r/247396778217/u/75/f/636708/c/34656/s/4eb0e0fb/sc/7/rc/3/rc.img" border="0"/></a><br/><br/><a href="http://da.feedsportal.com/r/247396778217/u/75/f/636708/c/34656/s/4eb0e0fb/sc/7/a2.htm"><img src="http://da.feedsportal.com/r/247396778217/u/75/f/636708/c/34656/s/4eb0e0fb/sc/7/a2.img" border="0"/></a><br/><a href="http://adchoice.feedsportal.com/r/247396778217/u/75/f/636708/c/34656/s/4eb0e0fb/sc/7/ach.htm"><img src="http://adchoice.feedsportal.com/r/247396778217/u/75/f/636708/c/34656/s/4eb0e0fb/sc/7/ach.img" border="0"/></a><img width="1" height="1" src="http://pi.feedsportal.com/r/247396778217/u/75/f/636708/c/34656/s/4eb0e0fb/sc/7/a2t.img" border="0"/><img width="1" height="1" src="http://pi2.feedsportal.com/r/247396778217/u/75/f/636708/c/34656/s/4eb0e0fb/sc/7/a2t2.img" border="0"/><img width=\'1\' height=\'1\' src=\'http://feeds.washingtonpost.com/c/34656/f/636708/s/4eb0e0fb/sc/7/mf.gif\' border=\'0\'/>'
p10
aS'Fire engulfs Russian defense ministry\xe2\x80\x99s building in Moscow'
p11
aS'A massive fire raged at a former headquarters of the Russian Defense Ministry in Moscow on Sunday before it was brought under control several hours later.<br clear=\'all\'/><br/><br/><a href="http://rc.feedsportal.com/r/247396809157/u/75/f/636708/c/34656/s/4eb065f5/sc/24/rc/1/rc.htm" rel="nofollow"><img src="http://rc.feedsportal.com/r/247396809157/u/75/f/636708/c/34656/s/4eb065f5/sc/24/rc/1/rc.img" border="0"/></a><br/><br/><a href="http://rc.feedsportal.com/r/247396809157/u/75/f/636708/c/34656/s/4eb065f5/sc/24/rc/2/rc.htm" rel="nofollow"><img src="http://rc.feedsportal.com/r/247396809157/u/75/f/636708/c/34656/s/4eb065f5/sc/24/rc/2/rc.img" border="0"/></a><br/><br/><a href="http://rc.feedsportal.com/r/247396809157/u/75/f/636708/c/34656/s/4eb065f5/sc/24/rc/3/rc.htm" rel="nofollow"><img src="http://rc.feedsportal.com/r/247396809157/u/75/f/636708/c/34656/s/4eb065f5/sc/24/rc/3/rc.img" border="0"/></a><br/><br/><a href="http://da.feedsportal.com/r/247396809157/u/75/f/636708/c/34656/s/4eb065f5/sc/24/a2.htm"><img src="http://da.feedsportal.com/r/247396809157/u/75/f/636708/c/34656/s/4eb065f5/sc/24/a2.img" border="0"/></a><br/><a href="http://adchoice.feedsportal.com/r/247396809157/u/75/f/636708/c/34656/s/4eb065f5/sc/24/ach.htm"><img src="http://adchoice.feedsportal.com/r/247396809157/u/75/f/636708/c/34656/s/4eb065f5/sc/24/ach.img" border="0"/></a><img width="1" height="1" src="http://pi.feedsportal.com/r/247396809157/u/75/f/636708/c/34656/s/4eb065f5/sc/24/a2t.img" border="0"/><img width="1" height="1" src="http://pi2.feedsportal.com/r/247396809157/u/75/f/636708/c/34656/s/4eb065f5/sc/24/a2t2.img" border="0"/><img width=\'1\' height=\'1\' src=\'http://feeds.washingtonpost.com/c/34656/f/636708/s/4eb065f5/sc/24/mf.gif\' border=\'0\'/>'
p12
aS'Pope Francis announces special collection for Ukraine'
p13
aS'Pope Francis has announced a special collection to help people in Ukraine suffering amid conflict \xe2\x80\x9cwho thirst for peace and reconciliation.\xe2\x80\x9d<br clear=\'all\'/><br/><br/><a href="http://rc.feedsportal.com/r/247396767444/u/75/f/636708/c/34656/s/4eb05232/sc/14/rc/1/rc.htm" rel="nofollow"><img src="http://rc.feedsportal.com/r/247396767444/u/75/f/636708/c/34656/s/4eb05232/sc/14/rc/1/rc.img" border="0"/></a><br/><br/><a href="http://rc.feedsportal.com/r/247396767444/u/75/f/636708/c/34656/s/4eb05232/sc/14/rc/2/rc.htm" rel="nofollow"><img src="http://rc.feedsportal.com/r/247396767444/u/75/f/636708/c/34656/s/4eb05232/sc/14/rc/2/rc.img" border="0"/></a><br/><br/><a href="http://rc.feedsportal.com/r/247396767444/u/75/f/636708/c/34656/s/4eb05232/sc/14/rc/3/rc.htm" rel="nofollow"><img src="http://rc.feedsportal.com/r/247396767444/u/75/f/636708/c/34656/s/4eb05232/sc/14/rc/3/rc.img" border="0"/></a><br/><br/><a href="http://da.feedsportal.com/r/247396767444/u/75/f/636708/c/34656/s/4eb05232/sc/14/a2.htm"><img src="http://da.feedsportal.com/r/247396767444/u/75/f/636708/c/34656/s/4eb05232/sc/14/a2.img" border="0"/></a><br/><a href="http://adchoice.feedsportal.com/r/247396767444/u/75/f/636708/c/34656/s/4eb05232/sc/14/ach.htm"><img src="http://adchoice.feedsportal.com/r/247396767444/u/75/f/636708/c/34656/s/4eb05232/sc/14/ach.img" border="0"/></a><img width="1" height="1" src="http://pi.feedsportal.com/r/247396767444/u/75/f/636708/c/34656/s/4eb05232/sc/14/a2t.img" border="0"/><img width="1" height="1" src="http://pi2.feedsportal.com/r/247396767444/u/75/f/636708/c/34656/s/4eb05232/sc/14/a2t2.img" border="0"/><img width=\'1\' height=\'1\' src=\'http://feeds.washingtonpost.com/c/34656/f/636708/s/4eb05232/sc/14/mf.gif\' border=\'0\'/>'
p14
aS'Air France faces staff mutiny in headscarf row'
p15
aS'<p>Union leaders say instruction to female staff to cover up when leaving their plane in Tehran is attack on individual freedoms</p><p>Air France is facing a backlash after instructing female crew to wear trousers during flights to Iran and to don a \xe2\x80\x9cloose-fitting jacket and headscarf\xe2\x80\x9d before leaving the plane in Tehran.</p><p>Staff representatives have accused the airline, which will resume flights to the Iranian capital later this month, of forcingfemal staff to wear clothes that are an \xe2\x80\x9costentatious religious sign\xe2\x80\x9d that goes against French law.</p> <a href="http://www.theguardian.com/world/2016/apr/03/air-france-faces-staff-mutiny-in-headscarf-row">Continue reading...</a>'
p16
aS'Donald Trump contradicts himself on nuclear weapons \xe2\x80\x93 as it happened'
p17
aS'<ul><li>Donald Trump lags in polls in Wisconsin behind Ted Cruz</li><li>GOP chair Priebus tours talk shows in damage-limitation bid</li><li><a href="http://www.theguardian.com/us-news/2016/apr/02/donald-trump-battle-for-the-soul-republican-party">Why the rise of Trump is a battle for the soul of the Republican party</a></li><li><a href="http://www.theguardian.com/us-news/2016/apr/02/donald-trump-north-korea-war-nuclear-weapons">Trump on North Korea going to war: \xe2\x80\x98Good luck, enjoy yourself folks\xe2\x80\x99</a></li></ul><p class="block-time published-time"> <time datetime="2016-04-03T17:54:48.367Z">6.54pm <span class="timezone">BST</span></time> </p><p>We\xe2\x80\x99re going to close our rolling coverage of politics for the day with a summary of the day\xe2\x80\x99s developments.</p><p class="block-time published-time"> <time datetime="2016-04-03T17:33:19.154Z">6.33pm <span class="timezone">BST</span></time> </p><p>Hillary Clinton will be with New York governor Andrew Cuomo on Monday when he signs a $15 minimum wage into law, per the campaign reporters with her.</p><p>She briefly said, while speaking at the Mount Pisgah Baptist Church in Brooklyn, \xe2\x80\x9cI\xe2\x80\x99ll be with Gov. Cuomo tomorrow when he signs the rise of the minimum wage.\xe2\x80\x9d</p><p lang="en" dir="ltr">Clinton has embraced New York and California\'s $15 minimum wage, but hasn\'t called for expanding nationwide, unlike Sanders</p> <a href="http://www.theguardian.com/us-news/live/2016/apr/03/donald-trump-ted-cruz-republicans-wisconsin-sanders-clinton-live">Continue reading...</a>'
p18
aS'Brussels airport partially reopens 12 days after suicide attacks'
p19
aS'<p>First passengers to pass through airport since twin blasts processed in temporary marquee housing security and check-in</p><p>Brussels airport reopened to a small number of passengers on Sunday, 12 days after <a draggable="true" href="http://www.theguardian.com/world/2016/mar/25/i-checked-the-time-it-was-910am-my-memories-stop-there-when-they-come-back-i-have-blood-on-my-face">suicide bombers destroyed its departure hall and killed 16 people</a>.</p><p> Belgium\xe2\x80\x99s main airport had not handled passenger flights since two suspected Islamic militants carried out suicide attacks on 22 March. The blasts and a separate attack on a metro train in the capital killed 32 people, as well as the three bombers.</p> <a href="http://www.theguardian.com/world/2016/apr/03/brussels-airport-reopens-12-days-after-suicide-attacks">Continue reading...</a>'
p20
aS'Thousands protest in Warsaw against proposed abortion ban'
p21
aS'<p>Women\xe2\x80\x99s rights activists infuriated by plans to tighten regulations to bring them into line with Catholic church\xe2\x80\x99s teachings</p><p>Thousands of people have attended a pro-choice rally outside parliament in Warsaw after the leader of Poland\xe2\x80\x99s ruling party backed a call from Catholic bishops for a full ban on pregnancy terminations.</p><p> Poland already has one of the most restrictive abortion laws in Europe. Official statistics show only a few hundred abortions are performed every year, but pro-choice campaigners say underground abortions are common.</p> <a href="http://www.theguardian.com/world/2016/apr/03/warsaw-protest-against-proposed-abortion-ban">Continue reading...</a>'
p22
aS"Daring Nazi prison camp escape tale emerges thanks to son's investigation"
p23
aS'<p>Edwin Shifrin, 93, received a prisoner-of-war medal this year after his son\xe2\x80\x99s efforts to piece together a story Shifrin himself hardly discussed</p><p>Edwin Shifrin\xe2\x80\x99s family knew he successfully escaped from a Nazi prison camp <a href="http://www.theguardian.com/world/2016/feb/10/second-world-war-veteran-reunited-with-girlfriend-after-70-years">during the second world war</a>, but it wasn\xe2\x80\x99t until one of his children started digging into his wartime past that they learned the details of the clever escape.</p><p>Shifrin, 93, seldom discussed his time at war, but he received a prisoner-of-war medal in February after his son Dan Shifrin dug through old news reports and his father\xe2\x80\x99s military records and pieced together what happened.</p> <a href="http://www.theguardian.com/world/2016/apr/03/nazi-prison-camp-escape-story-edwin-shifrin-medal">Continue reading...</a>'
p24
aS"Wife's death investigated after LA man charged with killing son for being gay"
p25
aS'<p>Shehada Issa, charged with hate crime, had threatened son Amir, prosecutors say \xe2\x80\x93 but father calls killing self-defense after he found wife\xe2\x80\x99s body at home</p><p>A Los Angeles man charged with fatally shooting his 29-year-old son for being gay had repeatedly threatened to kill him over his sexual orientation, prosecutors say. </p><p>Amir Issa, 29, was found shot to death just outside the family home on Tuesday. The Los Angeles County district attorney\xe2\x80\x99s office charged father Shehada Issa, 69, on Friday with murder as a hate crime in the son\xe2\x80\x99s death.</p> <a href="http://www.theguardian.com/us-news/2016/apr/03/father-charged-killing-son-gay-hate-crime-amir-issa">Continue reading...</a>'
p26
aS"Irish Mail on Sunday apologises for Buncrana pier tragedy 'interview'"
p27
aS'<p>Newspaper admits Louise James, who lost five family members in the accident in Donegal, spoke only in private capacity</p><p>The Mail on Sunday\xe2\x80\x99s Irish edition has issued an apology over a fake interview with a woman who lost five family members in the <a draggable="true" href="http://www.theguardian.com/world/2016/mar/20/five-dead-car-plunges-pier-county-donegal">Donegal pier tragedy</a> a fortnight ago.</p><p>Louise James, whose partner, two young sons, mother and sister died in the accident in Buncrana, had complained to the paper that she never consented to an interview. Her family perished when the Audi jeep they were in slipped along the pier and into Lough Swilly two weeks ago. </p> <a href="http://www.theguardian.com/world/2016/apr/03/irish-mail-on-sunday-apologises-buncrana-pier-tragedy-interview">Continue reading...</a>'
p28
aS'Vanuatu hit by 6.9 magnitude earthquake'
p29
aS'<p>Officials say tsunami danger has passed after quake hits island nation in Pacific Ocean</p><p>A strong earthquake has struck off the south Pacific island of Vanuatu, but authorities said any threat of a tsunamis had mostly passed, and there were no immediate reports of injuries or damage.</p><p>The magnitude-6.9 quake struck 50 miles (80km) north of the town of Port Olry and 253 miles north of Vanuatu\xe2\x80\x99s capital, Port Vila, according to the US Geological Survey. It had a depth of 22 miles.<br tabindex="-1"></p> <a href="http://www.theguardian.com/world/2016/apr/03/vanuatu-hit-by-69-magnitude-earthquake">Continue reading...</a>'
p30
aS"Great Barrier Reef pollution control efforts 'not enough to meet targets'"
p31
aS'<p>Scientists\xe2\x80\x99 findings that Reef 2050 Plan water quality targets will probably not be met come as Queensland government gives green light to Australia\xe2\x80\x99s largest coalmine</p><p> <span>Related: </span><a href="http://www.theguardian.com/environment/2016/apr/03/green-indigenous-furious-queenslands-carmichael-coalmine-lease-approval">Green and Indigenous groups furious over Queensland\'s Carmichael coalmine lease approval</a> </p><p>Australia is unlikely to meet water quality targets designed to protect the Great Barrier Reef, researchers from the federal government\xe2\x80\x99s marine science agency have warned.</p> <a href="http://www.theguardian.com/environment/2016/apr/03/great-barrier-reef-pollution-control-efforts-not-enough-to-meet-targets">Continue reading...</a>'
p32
aS'Anger as Lisbon fails to condemn jailing of Angola book club dissidents'
p33
aS'Luanda regime defiant over long prison terms<p>Activists and human rights campaigners expressed dismay this weekend after the Portuguese parliament failed to condemn the long sentences given to the so-called Luanda Book Club \xe2\x80\x93 the 17 dissidents convicted of political defiance of Angola\xe2\x80\x99s government.</p><p>The former colonial power had been warned by the Angolan president, Jos\xc3\xa9 Eduardo dos Santos, against \xe2\x80\x9cinterfering\xe2\x80\x9d, but the blocking of a motion in Lisbon to repudiate the verdicts was attacked by campaigners for the jailed men as \xe2\x80\x9ccomplicity in the ongoing looting\xe2\x80\x9d of the country by the regime.</p> <a href="http://www.theguardian.com/world/2016/apr/03/angola-dissidents-portugal-protest">Continue reading...</a>'
p34
aS'Nelson Mandela\xe2\x80\x99s fellow ANC activist breaks silence to demand Jacob Zuma\xe2\x80\x99s resignation'
p35
aS'Ahmed Kathrada, who stood in dock at Rivonia trial, tells South Africa president to go as scandal mounts over government cash for private mansion<p>One of South Africa\xe2\x80\x99s most revered anti-apartheid activists dramatically intervened in the growing row over President Jacob Zuma\xe2\x80\x99s future by urging the country\xe2\x80\x99s embattled leader to step down.</p><p>In a development described by analysts as potentially pivotal, Ahmed Kathrada, who was jailed alongside Nelson Mandela in 1964, called on Zuma to quit after the country\xe2\x80\x99s highest court ruled on Thursday that <a href="http://www.theguardian.com/world/2016/mar/31/jacob-zuma-ordered-repay-upgrades-nkandla-home-south-african-state-funds" title="">the leader had acted dishonestly over state spending on his private mansion.</a></p> <a href="http://www.theguardian.com/world/2016/apr/02/anc-veteran-ahmed-kathrada-calls-for-jacob-zuma-resignation">Continue reading...</a>'
p36
aS'Conflict erupts between Azerbaijani and Armenian forces'
p37
aS'<p>More than 30 people killed in clashes over separatist enclave of Nagorno-Karabakh in the Caucasus</p><p>At least 30 soldiers and a boy were reported killed as heavy fighting erupted between Armenian and Azerbaijani forces over the separatist region of Nagorno-Karabakh. The fighting was one of the worst outbreaks since the end of a full-scale war over the region in 1994. <br></p><p>Since 1994, mountainous Nagorno-Karabakh \xe2\x80\x93 officially part of Azerbaijan \xe2\x80\x93 has been under the control of local ethnic Armenian forces and the Armenian military. Armenian forces also occupy several areas outside Nagorno-Karabakh proper. The sides are separated by a demilitarised buffer zone, but small clashes have broken out frequently.</p> <a href="http://www.theguardian.com/world/2016/apr/02/conflict-erupts-between-azerbaijani-and-armenian-forces">Continue reading...</a>'
p38
aS'Paris fears for fate of theatre that added chic to pop culture'
p39
aS'Jean-Luc Choplin, the Ch\xc3\xa2telet\xe2\x80\x99s director, gave a high-art gloss to popular Broadway shows<p>When Jean-Luc Choplin took over more than a decade ago as director general of Paris\xe2\x80\x99s Th\xc3\xa9atre du Ch\xc3\xa2telet \xe2\x80\x93 one of the city\xe2\x80\x99s temples to high culture \xe2\x80\x93 heckling from the French press was deafening.</p><p>Some critics, surprised and outraged, nicknamed him Mickey \xe2\x80\x93 after the cartoon mouse \xe2\x80\x93 because he once worked for Disney. <em>Le Monde</em> accused Choplin of being scandalously lowbrow and a \xe2\x80\x9cdangerous defender of the entertainment world\xe2\x80\x9d, a purveyor of entertainment rather than culture.</p> <a href="http://www.theguardian.com/world/2016/apr/03/jen-luc-choplin-maestro-broadway-paris-theatre-paris">Continue reading...</a>'
p40
aS'\xe2\x80\x98We won\xe2\x80\x99t accept a coup\xe2\x80\x99: groups unite to save beleaguered Dilma Rousseff'
p41
aS'As the Brazilian president\xe2\x80\x99s position weakens, an unlikely popular movement is rallying to her side \xe2\x80\x93 and many of them do not support her party<p>The song of a bygone struggle against dictatorship echoed through Brazil\xe2\x80\x99s cities last week as trade unionists, social activists and musicians rallied against what they see as a \xe2\x80\x9ccoup\xe2\x80\x9d against president Dilma Rousseff.</p><p>Geraldo Vandr\xc3\xa9\xe2\x80\x99s 1968 melody Pra n\xc3\xa3o dizer que n\xc3\xa3o falei das Flores (\xe2\x80\x9cSo they can\xe2\x80\x99t say I didn\xe2\x80\x99t sing about the flowers\xe2\x80\x9d) harks back to an era of flower power and brutal military rule, but it has been revived in a very modern battle for the political soul of the country.</p> <a href="http://www.theguardian.com/world/2016/apr/03/brazil-beleaguered-rousseff-anthems-protests-fill-streets-impeachment">Continue reading...</a>'
p42
aS'Gay Talese in Twitter storm after failing to name inspirational female writers'
p43
aS'<ul><li>84-year-old makes controversial remarks at Boston University event</li><li>Audience member: Talese said \xe2\x80\x98women not comfortable talking to strangers\xe2\x80\x99</li></ul><p>Gay Talese, <a href="http://www.theguardian.com/books/2011/apr/02/biography-frank-sinatra">the 84-year-old writer</a> who was named by Tom Wolfe as the inventor of <a href="http://www.newnewjournalism.com/bio.php?last_name=talese">the New Journalism</a>, on Saturday found himself at the centre of a shock of the very new media. </p><p> <span>Related: </span><a href="http://www.theguardian.com/books/2011/apr/02/biography-frank-sinatra">Frank Sinatra Has a Cold and Other Essays, by Gay Talese</a> </p> <a href="http://www.theguardian.com/books/2016/apr/02/gay-talese-twitter-female-writers">Continue reading...</a>'
p44
aS'Brussels airport set to reopen with strict new security measures'
p45
aS'<p>First flights due to depart on Sunday after establishment of temporary check-in facility while departure hall is rebuilt</p><p> Brussels airport is to reopen on Sunday, 12 days after it and a metro station in the Belgian capital were hit by bomb attacks that killed 32 people. The first three \xe2\x80\x9csymbolic flights\xe2\x80\x9d will depart on Sunday afternoon, the airport\xe2\x80\x99s chief executive, Arnaud Feist, told reporters. </p><p>He said travellers would be subject to additional security checks, as police had demanded. \xe2\x80\x9cThis restart, even if it\xe2\x80\x99s only partial, it is a sign of hope,\xe2\x80\x9d Feist said.</p> <a href="http://www.theguardian.com/world/2016/apr/02/brussels-airport-set-to-reopen-with-strict-new-security-measures">Continue reading...</a>'
p46
aS"Could Miami's rail project be test model that could change mass transit in US?"
p47
aS'<p>City\xe2\x80\x99s $375m plan \xe2\x80\x93 to be engineered by Japan\xe2\x80\x99s Hitachi and Italian firm Ansaldo \xe2\x80\x93 a serious effort to switch commuters from overcrowding and cars to rail system</p><p>What do you get if you put Hitachi\xe2\x80\x99s Japanese engineers, their counterparts from Italy, a schoolgirl choir and the mayor of Miami together in the swamps of Florida? A new metrorail system that Miami\xe2\x80\x99s urban planners hope will bring commuting from the city to its ribbons of suburbs into the 21st century.</p><p>But behind the hoopla and celebration surrounding the $375m project unveiled last week is a serious effort to switch US commuters in a major regional city from overcrowded, inefficient and polluting dependence on cars to a model that resembles the European or Asian adoption of mass transit. </p> <a href="http://www.theguardian.com/business/2016/mar/26/miami-light-rail-project-mass-transit-hitachi-ansaldo">Continue reading...</a>'
p48
aS"Claims Brexit could save NHS are 'dangerous lie', ex-health secretaries say"
p49
aS'<p>Four former Labour health secretaries reject leave campaign argument, warning service would be starved of resources</p><p>The notion that Brexit could save the NHS by freeing the health service of burdensome immigration is a \xe2\x80\x9cdangerous lie\xe2\x80\x9d that could see the UK starved of medical resources, four former Labour health secretaries have warned.</p><p>Alan Milburn, Patricia Hewitt, Andy Burnham and Alan Johnson said leaving the EU would risk \xe2\x80\x9cfrightening consequences for staffing, waiting times and levels of service care\xe2\x80\x9d.</p> <a href="http://www.theguardian.com/politics/2016/apr/03/claims-brexit-could-save-nhs-dangerous-lie-ex-health-secretaries">Continue reading...</a>'
p50
aS'Is the end of days looming for fundamentalist sect in Utah?'
p51
aS'<p>The Fundamentalist Latter-day Saints believe an apocalyptic miracle will free their imprisoned leader this week but the group\xe2\x80\x99s own future is in doubt</p><p>The new federal courthouse in downtown Salt Lake City is a massive, futuristic cube of metal and glass that looks imposing, austere and, above all, impregnable. Armed guards patrol the exterior 24 hours a day.</p><p>But if a certain group of polygamous religious extremists in a lonely corner of southern Utah are to be believed, this Wednesday the walls will split open and fall when one of their leaders, Lyle Jeffs, appears before the judge in a major fraud case, according to former followers of his sect.</p> <a href="http://www.theguardian.com/us-news/2016/apr/03/utah-fundamentalist-sect-latter-day-saints-end">Continue reading...</a>'
p52
aS'Iceland\xe2\x80\x99s prime minister walks out of interview over tax haven question \xe2\x80\x93 video'
p53
aS'<p>Sigmundur Dav\xc3\xad\xc3\xb0 Gunnlaugsson, the prime minister of Iceland, walks out of an interview with Swedish television company SVT. Gunnlaugsson is asked about a company called Wintris, which he says has been fully declared to the Icelandic tax authority. Gunnlaugsson says he is not prepared to answer such questions and decides to discontinue the interview, saying: \xe2\x80\x98What are you trying to make up here? This is totally inappropriate\xe2\x80\x99</p> <a href="http://www.theguardian.com/world/video/2016/apr/03/icelands-prime-minister-walks-out-of-interview-over-tax-haven-question-video">Continue reading...</a>'
p54
aS'The Panama Papers: how to hide a billion dollars \xe2\x80\x93 video explainer'
p55
aS'<p>A major leak of the secret offshore arrangements of some of Vladimir Putin\xe2\x80\x99s closest friends reveals how hundreds of millions of dollars are hidden around the globe in complex financial structures. A trove of leaked documents from Panamanian law firm Mossack Fonseca unveils previously untraceable transactions of some of Russia\xe2\x80\x99s most powerful men</p> <a href="http://www.theguardian.com/news/video/2016/apr/03/the-panama-papers-how-to-hide-a-billion-dollars-video-explainer">Continue reading...</a>'
p56
aS'Iceland\xe2\x80\x99s PM faces calls for snap election after offshore revelations'
p57
aS'<p>Sigmundur Dav\xc3\xad\xc3\xb0 Gunnlaugsson under fire after leaked papers show he failed to declare stake in offshore company</p><ul><li><a href="http://www.theguardian.com/news/2016/apr/03/panama-papers-money-hidden-offshore">Revealed: the $2bn offshore trail that leads to Vladimir Putin</a><br></li><li><a href="http://www.theguardian.com/news/2016/apr/03/leaked-papers-fifa-ethics-committee-credibility-crisis-juan-pedro-damiani-eugenio-figueredo">Fifa faces new credibility crisis after leaks</a></li><li><a href="http://www.theguardian.com/news/2016/apr/03/what-you-need-to-know-about-the-panama-papers">What you need to know about the Panama Papers</a></li></ul><p>Iceland\xe2\x80\x99s prime minister is this week expected to face calls in parliament for a snap election after <a href="http://www.theguardian.com/news/2016/apr/03/what-you-need-to-know-about-the-panama-papers">the Panama Papers</a> revealed he is among several leading politicians around the world with links to secretive companies in offshore tax havens.</p><p>The financial affairs of Sigmundur Dav\xc3\xad\xc3\xb0 Gunnlaugsson and his wife have come under scrutiny because of details revealed in documents from a Panamanian law firm that helps clients protect their wealth in secretive offshore tax regimes. The files from Mossack Fonseca form the biggest ever data leak to journalists.</p> <a href="http://www.theguardian.com/news/2016/apr/03/iceland-pm-calls-snap-election-offshore-revelations">Continue reading...</a>'
p58
aS'North Korea announces blocks on Facebook, Twitter and YouTube'
p59
aS'<p>Regime bans social media and \xe2\x80\x98sex and adult websites\xe2\x80\x99 in latest attempt to control the flow of digital information</p><p>North Korea has officially announced it is blocking Facebook, YouTube, Twitter and South Korean websites in a bid to further control access to outside information.</p><p>The Ministry of Posts and Telecommunications announcement was published this week at the country\xe2\x80\x99s main mobile service provider, Koryolink, and other places serving internet users in Pyongyang.</p> <a href="http://www.theguardian.com/world/2016/apr/01/north-korea-announces-blocks-on-facebook-twitter-and-youtube">Continue reading...</a>'
p60
aS"New book sheds light on North Korea's abduction programme"
p61
aS'<p>Robert Boynton talks to <a href="https://www.nknews.org/2016/03/a-look-into-north-koreas-invitation-only-zone/">NK News</a> about The Invitation-Only Zone, his 14-year investigation into the regime\xe2\x80\x99s kidnappings</p><p>In 1978 Kaoru Hasuike and his girlfriend were snatched by four North Korean agents from a beach near the Japanese town of Kashiwazaki, thrown into sacks and bundled onto inflatable rafts. </p><p>\xe2\x80\x9cKeep quiet and we won\xe2\x80\x99t hurt you,\xe2\x80\x9d the kidnappers told them as they were taken to the North Korean capital, where until 2002 they were held as pawns in a secretive programme run by the DPRK regime.</p> <a href="http://www.theguardian.com/world/2016/apr/01/north-korea-abduction-robert-boynton-invitation-only-zone-book">Continue reading...</a>'
p62
aS"Nkandla verdict shows South Africa's democracy is alive and kicking"
p63
aS'<p>President Zuma finally held to account by court ruling that he must repay the government money he spent upgrading his lavish home<br></p><p>It\xe2\x80\x99s not a good look for a young democracy when its president is convicted in the country\xe2\x80\x99s highest court of failing to respect the constitution. </p><p> <span>Related: </span><a href="http://www.theguardian.com/world/2016/mar/31/jacob-zuma-ordered-repay-upgrades-nkandla-home-south-african-state-funds">Jacob Zuma breached constitution over home upgrades, South African court rules</a> </p> <a href="http://www.theguardian.com/world/2016/mar/31/south-africa-nkandla-verdict-jacob-zuma">Continue reading...</a>'
p64
aS'Anonymous hacks Angolan government after activists jailed'
p65
aS'<p>Collective says it attacked official websites in retaliation to sentences given to 17 members of a book club in Luanda </p><p>A Portuguese branch of the Anonymous hacking collective says it has shut down around 20 Angolan government websites in retaliation to the <a href="http://www.theguardian.com/world/2016/mar/28/angola-jails-17-activists-rebellion-public-book-reading">jailing of 17 youth activists</a> for plotting a \xe2\x80\x9crebellion\xe2\x80\x9d.<br></p><p>The youths, including well-known rapper <a href="http://www.theguardian.com/world/2015/oct/16/angola-rapper-hunger-strike-luaty-beirao-interview">Luaty Beir\xc3\xa3o</a>, were sentenced on Monday to between two and eight-and-a-half years, in a ruling that Amnesty International said was \xe2\x80\x9can affront to justice\xe2\x80\x9d.</p> <a href="http://www.theguardian.com/world/2016/mar/31/anonymous-hacks-angolan-government-after-activists-jailed">Continue reading...</a>'
p66
aS"The 'new Ukraine' is failing us, LGBT activists say"
p67
aS'<p>Gay rights advocate tells <a href="http://www.codastory.com/lgbt-crisis/forgotten-revolutionaries">Coda Story</a> his community is being ignored by the Ukrainian government as homophobic attacks continue</p><p>Zo\xc2\xadryan Kis was <a href="http://www.theguardian.com/world/2015/jul/23/gay-couple-kicked-pepper-sprayed-far-right-mob-kiev-ukraine">sit\xc2\xadting on a bench in the cen\xc2\xadtre of Kiev</a> with his boyfriend on his lap when a group of teenagers came up to them, asked if they were \xe2\x80\x9cpa\xc2\xadtri\xc2\xadots\xe2\x80\x9d and doused them in pepper spray.</p><p>Friends rushed to help but the reaction to their public display of affection was clear \xe2\x80\x93 they were not welcome. </p> <a href="http://www.theguardian.com/world/2016/mar/31/new-ukraine-government-lgbt-activists-gay-rights-zoryan-kis">Continue reading...</a>'
p68
aS'The Ghanaian turning thousands of discarded plastic bottles into art'
p69
aS'<p>A new exhibition showcases a local artist using jerry cans to draw attention to the country\xe2\x80\x99s pollution crisis</p><p>The brightly coloured plastic jugs once played a vital role transporting water during Ghana\xe2\x80\x99s droughts. Now, they\xe2\x80\x99re creating a new environmental catastrophe of their own. </p><p>Seas of discarded yellow, blue and white containers \xe2\x80\x93 referred to locally as \xe2\x80\x9cKufuor gallons\xe2\x80\x9d after the water crises endured under president John Kufuor in the early 2000s \xe2\x80\x93 have become a troubling part of Ghana\xe2\x80\x99s landscape. </p> <a href="http://www.theguardian.com/world/2016/mar/31/ghana-art-serge-attukwei-clottey-pastic-pollution-exhibition">Continue reading...</a>'
p70
aS'Iranian group gets help from Islam to save juveniles from execution'
p71
aS'<p>As 160 under-18s wait on death row in the Islamic Republic, an NGO is raising blood money and public awareness to halt executions of juvenile offenders</p><p>On the night of 22 March 2009, 17-year-old Hamid was in his dad\xe2\x80\x99s mini-bus when their neighbour\xe2\x80\x99s son, Ayyoub, 16, got in. Hamid was in the business of selling mobile phones, and Ayyoub had been in dispute with him for days over a cellphone he\xe2\x80\x99d bought from him. As their argument became heated, Hamid grabbed part of a seat cover and strangled Ayyoub.<br></p><p>Hamid was sentenced to death by hanging. Murder in Iran carries capital punishment even for minors who are incarcerated until the sentence is carried out when they turn 18. The execution can be halted only if the victim\xe2\x80\x99s family pardons the offender, usually in return for blood money.</p> <a href="http://www.theguardian.com/world/iran-blog/2016/mar/31/iran-juveniles-saved-death-row-imam-ali-society">Continue reading...</a>'
p72
aS'Sanctions, misunderstanding and religion: 100 Iranians give their view'
p73
aS'<p>The post-sanctions era: a \xe2\x80\x9c<a href="http://www.theguardian.com/world/2016/jan/17/rouhani-targets-economic-boom-for-iran-as-he-hails-golden-nuclear-deal">golden page in history</a>\xe2\x80\x9d, a turning point in the economy, or business as usual? According to the popular western media narrative, Iran is now ready to talk to the world \xe2\x80\x93 tourist numbers are set to rise, there has been a flurry of high-profile business deals and a recent election saw reformists sweep to victory in Tehran.</p><p>But what do ordinary Iranians think about politics? How does it feel to live in the Islamic Republic, long-maligned by the world? Are they misrepresented, and if so how do we remedy that? 100 people living in the country, and across the diaspora, share their views</p> <a href="http://www.theguardian.com/world/iran-blog/ng-interactive/2016/mar/30/sanctions-western-misunderstanding-and-religion-100-iranians-share-their-views">Continue reading...</a>'
p74
aS'No place like home? The people caught between Germany and Russia \xe2\x80\x93 in pictures'
p75
aS'<p>Photographer <a href="http://calvertjournal.com/photography/show/5738/privet-germania-volga-germans-ira-thiessen">Ira Thiessen</a>\xe2\x80\x99s new series captures the peculiar community of \xe2\x80\x98Volga\xe2\x80\x99 Germans whose complex place in Russian history has left them in cultural limbo. She speaks to <a href="http://calvertjournal.com/">The Calvert Journal</a> about the project</p> <a href="http://www.theguardian.com/world/gallery/2016/mar/30/ira-thiessen-privet-germany-russia-people-caught-between-in-pictures">Continue reading...</a>'
p76
aS'A sanctuary for stray dogs grows in Iran thanks to social media'
p77
aS'<p>Animal lover Maryam Sanei has set up a hospice for unwanted pooches. A draft law penalising those who harass stray animals was referred to the President\xe2\x80\x99s office last month<br></p><p>I called Maryam Sanei in Tehran a little before 9pm. She had asked me to call her at night, saying she was busy during the day taking care of her dogs, which she calls \xe2\x80\x9ckids\xe2\x80\x9d. <br></p><p>After a few rings, she picked up, sounding anxious. \xe2\x80\x9cI can\xe2\x80\x99t talk right now. We have a kid here who\xe2\x80\x99s badly injured. Can I talk to you in few hours?\xe2\x80\x9d She got back to me at 1.30am.</p> <a href="http://www.theguardian.com/world/iran-blog/2016/mar/29/iran-maryam-sanei-hospice-stray-dogs">Continue reading...</a>'
p78
aS'In a devastated Turkish town, teenagers dream of joining the Kurdish guerrillas'
p79
aS'Students feel the Ankara government sees them as enemies, not citizens, and hundreds are joining the PKK<p>Ahmet, 21, walks past a house where a man is smearing wet concrete on a wall riddled with bullet holes. A young girl balances over a massive mine crater that scars the street, filled with debris and muddy water.</p><p>\xe2\x80\x9cLook what this war has done to the neighbourhood,\xe2\x80\x9d Ahmet says, greeting the girl with a nod. A member of the Civil Defence Units (YPS) \xe2\x80\x93 formerly known as the Patriotic Revolutionary Youth Movement (YDG-H) \xe2\x80\x93 Ahmet voices doubts about this new urban conflict in Turkey\xe2\x80\x99s mainly Kurdish south-east. \xe2\x80\x9cI believe in autonomy, but these methods are wrong, they hurt us.\xe2\x80\x9d</p> <a href="http://www.theguardian.com/world/2016/apr/03/diyarbakir-kurdish-teenagers-dream-of-becoming-guerrillas">Continue reading...</a>'
p80
aS'18 people injured as two trains collide at Plymouth station'
p81
aS'<p>Eyewitness describes \xe2\x80\x98huge bang\xe2\x80\x99 and passengers thrown forward when train he was riding in collided with stationary train </p><p>Eighteen people have been injured after two trains collided at Plymouth railway station, the ambulance service has said. Emergency services were called at 3.35pm on Sunday after two passenger services were involved in a \xe2\x80\x9clow-speed\xe2\x80\x9d collision on platform six of Plymouth station. A \xe2\x80\x9chuge bang\xe2\x80\x9d was heard and passengers were thrown forward by the impact, according to an eyewitness.</p><p>All 18 casualties \xe2\x80\x93 which include the driver of one of the trains \xe2\x80\x93 were reported to be in stable condition, a spokeswoman for South Western ambulance service said. She added: \xe2\x80\x9cThe majority of those are walking wounded, and eight of those are going to Derriford hospital in Plymouth.\xe2\x80\x9d</p> <a href="http://www.theguardian.com/uk-news/2016/apr/03/18-people-injured-when-two-trains-collide-plymouth-station">Continue reading...</a>'
p82
aS'The Guardian view on the EU refugee deal: Greece has Europe\xe2\x80\x99s reputation in its hands | Editorial'
p83
aS'Deporting migrants could be a human rights catastrophe. Officials must tread with the greatest care<p>The crunch has arrived. After a vote by Greek MPs, Monday sees the start of the implementation of last month\xe2\x80\x99s EU agreement with Turkey, the process of deporting so-called \xe2\x80\x9cirregular\xe2\x80\x9d refugees and migrants newly arrived in Greece from Turkey. It is a moment that may come to reshape what we understand by Europe.</p><p>It is important to acknowledge how big and generous a role Turkey has played as host for the past five years to hundreds of thousands of Syrian refugees. Under the terms of the deal, the EU agreed to expand cash support to ease the burden. That is not the deal\xe2\x80\x99s contentious aspect. What is troubling, the aspect that raises such difficult questions, is the scheme to deter migrants setting off from Turkey to Europe, and to incentivise Turkish authorities to clamp down on them. The plan to swap each returned irregular migrant for one of the <a href="http://www.unhcr.org/pages/49e48e0fa7f.html" title="">2 million-strong population of Syrian refugees</a> in Turkish camps, who will be resettled in the EU, is interpreted by some lawyers as a risk of being deported without due process, and is the fear of thousands of refugees and migrants who have already reached the Greek islands \xe2\x80\x93 some of whom, like those <a href="http://www.theguardian.com/world/2016/apr/02/greece-violence-refugees-riot-forced-return-to-turkey" title="">on Chios</a>, have been rioting at the prospect of deportation.</p> <a href="http://www.theguardian.com/commentisfree/2016/apr/03/the-guardian-view-on-the-eu-refugee-deal-greece-has-europes-reputation-in-its-hands">Continue reading...</a>'
p84
aS'Elnathan John: \xe2\x80\x98I want to show that things are never simple\xe2\x80\x99'
p85
aS'The Nigerian writer and satirist on his first novel, Born on a Tuesday, a study of a young man caught up in Islamic fundamentalism<p><strong>What part of Nigeria were you born in, and how much has the country changed since you were a child?</strong><br>I was born in Kaduna, north-west Nigeria, in 1982. The place used to be very cosmopolitan \xe2\x80\x93 people living anywhere and it did not matter who you were. Now, there is self-imposed apartheid. After the 1990s riots, the city split into Christian and Muslim. If you were the wrong religion for an area, you\xe2\x80\x99d have to move house in fear for your life. Today, there is an uneasy calm. Because of segregation, people can gather in their districts and speak out against one another. I think a crisis is brewing. Sadly, the government is not looking into ways of integrating people or bringing Kaduna back to where it was before.</p><p><strong>Was there a particular seed from which your first novel, about a young man who gets caught up in Islamic fundamentalism, grew?</strong><br><a href="http://www.cassavarepublic.biz/products/born-on-a-tuesday" title=""><em>Born on a Tuesday</em></a> was informed partly by my upbringing but also inspired by the <em>almajiri</em> [the name for those sent from their homes as children to study in Islamic schools] I met at university. I was interested in their lives and their thoughts and intrigued that they were [often] people without names. What is in a name? The question became important to me. The minimum a person can have is a name. I was interested in what happens when that basic form of identity is taken away. \xe2\x80\x9cBorn on a Tuesday\xe2\x80\x9d is the protagonist\xe2\x80\x99s name, but not a real name.</p> <a href="http://www.theguardian.com/books/2016/apr/03/elnathan-john-born-on-a-tuesday-interview-nigeria">Continue reading...</a>'
p86
aS"British drug smuggler: 'I might have had a lot of blood on my hands'"
p87
aS'<p>After her release from jail in Peru, Michaella McCollum says her actions could potentially have killed people, but she is not a bad person </p><p>A drug smuggler <a href="http://www.theguardian.com/world/2016/apr/01/michaella-mccollum-british-drug-smuggler-released-peru-prison">released from prison in Peru </a>has admitted she might have had \xe2\x80\x9ca lot of blood on her hands\xe2\x80\x9d if she had managed to transport cocaine to Europe.</p><p>Michaella McCollum, 23, from Dungannon in County Tyrone, <a href="http://www.theguardian.com/uk/northernireland">Northern Ireland</a>, said she had acted in a moment of madness. She was freed on Thursday after spending more than two years in jail but remains in Peru, effectively on parole.</p> <a href="http://www.theguardian.com/world/2016/apr/03/british-drug-smuggler-michaella-mccollum-peru-blood-hands">Continue reading...</a>'
p88
aS'Greens pledge to scrap capital gains tax discount and raise $119.5bn in decade'
p89
aS'<p>Labor\xe2\x80\x99s plan to halve capital gains tax discount would generate just $32.1bn over decade, but both parties say their policies will slow increase in housing prices</p><p> <span>Related: </span><a href="http://www.theguardian.com/australia-news/2016/apr/03/malcolm-turnbulls-tax-tactics-an-attempt-to-shift-not-end-the-blame-game">Malcolm Turnbull\xe2\x80\x99s tax tactics an attempt to shift, not end, the \'blame game\'</a> </p><p>The Greens have announced the detail of a plan to phase out capital gains tax discount over five years, raising far more revenue than Labor\xe2\x80\x99s plan to halve it.</p> <a href="http://www.theguardian.com/australia-news/2016/apr/04/greens-pledge-to-scrap-capital-gains-tax-discount-and-raise-1195bn-in-decade">Continue reading...</a>'
p90
aS"Azerbaijan-Armenia conflict is a reminder of Europe's instability"
p91
aS'<p>Sudden eruption of violence in the Nagorno-Karabakh region has come as a nasty shock and must be addressed</p><p>Heavy fighting between the armed forces of Azerbaijan and Armenia over the weekend has highlighted the unresolved disputes and chronic internal instability that still affect key strategic areas of Europe, even as the political and security focus has shifted to external threats. </p><p>With the attention of EU leaders firmly fixed on <a href="http://www.theguardian.com/world/2016/mar/14/syria-civil-war-five-years-guardian-reporting">Syria\xe2\x80\x99s civil war</a>, the refugee crisis and the menace posed by Islamist terrorism, the sudden eruption on Saturday of violence in the <a href="http://www.theguardian.com/world/2015/dec/10/azerbaijan-shells-nagorno-karabakh">Nagorno-Karabakh</a> region, an internationally unrecognised Armenian-dominated enclave inside Azerbaijan, has come as a nasty shock. </p> <a href="http://www.theguardian.com/world/2016/apr/03/azerbaijan-armenia-conflict-europe-instability-nagorno-karabakh">Continue reading...</a>'
p92
aS'Afghan Taliban create smartphone app to spread their message'
p93
aS'<p>Android app offered access to videos and statements in Pashto but has been removed from Google Play Store</p><p>The Afghan Taliban have created an app for Android smartphones in an attempt to connect with a wider digital audience. </p><p>The app, called Alemarah, gave access to Taliban videos and statements in Pashto, but was removed from Google\xe2\x80\x99s Play Store shortly after the US-based SITE Intel Group <a href="https://news.siteintelgroup.com/Jihadist-News/afghan-taliban-develops-android-app-lists-on-google-play-store.html">reported</a> its launch on Friday.</p> <a href="http://www.theguardian.com/world/2016/apr/03/afghan-taliban-create-smartphone-app-spread-message">Continue reading...</a>'
p94
aS'Far-right and anti-fascist groups hold protests in Dover \xe2\x80\x93 video'
p95
aS'<p>Far-right and anti-fascist groups hold rival protests in Dover on Saturday. Roads were closed and lined by police as demonstrators marched along separate routes through the port town in Kent. Police formed a human barrier to cordon off the anti-fascist protesters as far-right demonstrators, who are in favour of Brexit and against immigration, marched past. An EU flag was burnt by far-right protesters </p> <a href="http://www.theguardian.com/world/video/2016/apr/03/far-right-and-anti-fascist-groups-hold-protests-in-dover-video">Continue reading...</a>'
p96
aS'Refugees block road in Greece over closed EU borders \xe2\x80\x93 video'
p97
aS'<p>Refugees block a road in northern Greece on Saturday, demanding that European Union states reopen their borders and allow them entry into western Europe. The protests comes ahead of the implementation of an EU deal that, from Monday, will see refugees deported back to Turkey en masse. Some 750 migrants are set to be sent back between Monday and Wednesday from the island of Lesbos to the Turkish port of Dikili</p> <a href="http://www.theguardian.com/world/video/2016/apr/03/refugees-block-road-in-greece-over-closed-eu-borders-video">Continue reading...</a>'
p98
aS'The man who could fix Brazil: country sees hope for salvation in vice-president'
p99
aS'<p>With the threat of impeachment on the horizon for Dilma Rousseff, the country\xe2\x80\x99s future remains cloudy \xe2\x80\x93 but a quiet lawyer is well-placed to take over</p><p>As Brazil\xe2\x80\x99s congress moves ever closer to impeaching President <a draggable="true" href="http://www.theguardian.com/world/dilma-rousseff">Dilma Rousseff</a>, there is anger on the streets and hope in the markets that the country\xe2\x80\x99s kingmaker may soon seize the throne for himself.</p><p>For those desperate for change, Vice-President Michel Temer represents salvation. Others, more concerned about the country\xe2\x80\x99s fragile democracy, believe he is the perpetrator of a coup. Nobody, however, has any doubt that recent events have put him in a powerful position.</p> <a href="http://www.theguardian.com/world/2016/apr/03/brazil-michel-temer-dilma-rousseff-impeachment">Continue reading...</a>'
p100
aS'One woman\xe2\x80\x99s battle to heal her home city of Homs'
p101
aS'<p>As bombs fell around her, Syrian architect Marwa al-Sabouni stayed in Homs throughout the civil war, making plans to build hope from carnage. Her ideas are now laid out in a visionary memoir. But will anyone listen?</p><p>In Syria, an aphorism contends that \xe2\x80\x9cone who has no old has no new\xe2\x80\x9d. Before the dark days of the civil war, it was used nostalgically, as a brake on those \xe2\x80\x93 the young, the daring, the dangerously modern \xe2\x80\x93 who had no use for the outmoded past: for its narrow streets, crowded souks and tiny workshops. But since 2011, when the troubles began, it has taken on an altogether more painful meaning. With so much of the country destroyed, what will the future look like? People close their eyes, and they wonder: is it even possible to imagine such a thing?</p><p><a href="http://wsimag.com/authors/98-marwa-al-sabouni" title="">Marwa al-Sabouni</a> believes it is \xe2\x80\x93 and her eyes are wide open. A 34-year-old architect and mother of two, Sabouni was born and grew up in Homs, scene of some of the most vicious fighting. Unlike many, however, she did not leave Syria \xe2\x80\x93 or even Homs itself \xe2\x80\x93 during the war. The practice she and her husband still (in theory) run together on the old town\xe2\x80\x99s main square was shut up almost immediately: this part of the city quickly became a no-go area. But her home nearby somehow survived intact, and her family safe inside it.</p> <a href="http://www.theguardian.com/world/2016/apr/03/homs-syria-marwa-al-sabouni-architect">Continue reading...</a>'
p102
aS'MH370: debris found in Mauritius to be examined by investigators, Australia confirms'
p103
aS'<p>Australia\xe2\x80\x99s transport minister, Darren Chester, says Malaysian government working with Mauritius to seek to take custody of debris</p><p> <span>Related: </span><a href="http://www.theguardian.com/world/2016/mar/11/mh370-debris-found-by-teenager-on-holiday-to-be-tested-in-australia">MH370: debris found by teenager on holiday to be tested in Australia</a> </p><p>Australia said a piece of suspected aeroplane debris found east of Africa on Mauritius will be examined to see if it is part of Malaysia Airlines Flight 370, which went missing two years ago in one of the world\xe2\x80\x99s greatest aviation mysteries. </p> <a href="http://www.theguardian.com/world/2016/apr/03/mh370-debris-found-in-mauritius-to-be-examined-by-investigators-australia-confirms">Continue reading...</a>'
p104
aS'Syrian teenager who fled the Jungle to find his sister: \xe2\x80\x98It feels good to feel safe at last\xe2\x80\x99'
p105
aS'After seven months in Calais and 50 attempts to reach Britain, Adnan has found refuge in London. He talks about missing his family and his plans for the future<p>Adnan can barely believe he has made it. The Syrian orphan arrived in London via Eurostar on Wednesday to be reunited with his sister, four years after she fled the civil war engulfing their homeland.</p><p>Adnan is the seventh unaccompanied minor the government <a href="http://www.theguardian.com/uk-news/2016/mar/21/three-syrian-boys-arrive-from-calais-camp-first-use-legal-process" title="">has allowed to enter </a> under EU regulations that let child refugees be reunited with their families, and is the first to agree to talk about his new life. \xe2\x80\x9cI am very, very pleased to be here, it feels good to feel safe at last,\xe2\x80\x9d said Adnan, who has just turned 17.</p> <a href="http://www.theguardian.com/world/2016/apr/02/syrian-teenager-jungle-sister-calais-refugee">Continue reading...</a>'
p106
aS'International Pillow Fight Day \xe2\x80\x93 in pictures'
p107
aS'<p>International Pillow Fight Day attracts tens of thousands of people in more than 100 cities all over the world each year</p> <a href="http://www.theguardian.com/world/gallery/2016/apr/02/international-pillow-fight-day-in-pictures">Continue reading...</a>'
p108
aS'The UN\xe2\x80\x99s war on drugs is a failure. Is it time for a different approach?'
p109
aS'A policy of prohibition has put the drugs trade in the hands of criminals and led to suffering for millions. Now there are hopes a special United Nations session will see reform<p>The year 2008 was momentous. Lehman Brothers collapsed, Radovan Karad\xc5\xbei\xc4\x87 was arrested, Russian troops massed on the Georgian border, and Barack Obama beat John McCain to the White House.&nbsp;</p><p>But 2008 was also significant for something that didn\xe2\x80\x99t happen. It was the year that the world didn\xe2\x80\x99t eliminate the illicit drugs problem. This quixotic goal had been set a decade earlier at a <a href="https://www.unodc.org/unodc/en/treaties/illicit-trafficking.html" title="">United Nations general assembly special session</a> when, under the vainglorious slogan \xe2\x80\x9cWe can do it\xe2\x80\x9d, the supranational body pledged that, by 2008, the world would be \xe2\x80\x9cdrug free\xe2\x80\x9d.</p> <a href="http://www.theguardian.com/world/2016/apr/02/un-war-on-drugs-failure-prohibition-united-nations">Continue reading...</a>'
p110
aS'Far-right and anti-fascist rallies bring Dover to standstill again'
p111
aS'<p>Major police operation prevents repeat of January violence between groups opposed to refugees\xe2\x80\x99 arrival and counter-protesters</p><p>Dover has once again been brought to a standstill by far-right groups marching through the town to protest against the arrival of refugees and a counter-rally by anti-fascist protesters. <br></p><p>Police closed roads and deployed hundreds of officers to ensure that the two groups of demonstrators marched along separate routes through the port town in Kent. Many streets were lined with officers in riot gear in a bid to prevent a repeat of the violent clashes that took place between the two groups in January.</p> <a href="http://www.theguardian.com/world/2016/apr/02/far-right-and-anti-fascist-rallies-bring-dover-to-standstill-again">Continue reading...</a>'
p112
aS'Teenage refugee killed in lorry crash while attempting to reach family in UK'
p113
aS'<p>Mohammed Hussain, 18, becomes first casualty of crisis in Britain this year while fleeing Dunkirk camp en route to Manchester</p><p>A Kurdish teenager has died underneath a lorry in Oxfordshire, the first refugee to be killed on British soil this year, prompting fresh criticism of the government\xe2\x80\x99s asylum policy for people arriving in Europe.</p><p>Mohammed Hussain, 18, was clinging to the underside of a lorry when the vehicle crashed at around 6pm on Friday night. The teenager appears to have had a legitimate claim for entry to the UK. </p> <a href="http://www.theguardian.com/world/2016/apr/02/teenager-from-kurdistan-dies-under-lorry-in-oxfordshire">Continue reading...</a>'
p114
aS'Palmyra damage revealed in new footage - video'
p115
aS'<p>New footage shows the extent of damage done to the ancient Syrian city of Palmyra after almost one year under the control of Islamic State. Syrian government forces retook the city in March, hailing the victory as one of the biggest defeats for IS. Many of the city\xe2\x80\x99s relics have been reduced to rubble, such as the Temple of Bel, but Syrian antiquities officials plan to meet with Unesco chiefs to discuss how to initiate restoration processes</p><ul><li><a href="http://www.theguardian.com/world/2016/apr/02/syrian-troops-discover-mass-grave-in-palmyra">Syrian troops \xe2\x80\x98discover mass grave in Palmyra\xe2\x80\x99</a></li></ul> <a href="http://www.theguardian.com/world/video/2016/apr/02/palmyra-damage-revealed-new-footage-syria-video">Continue reading...</a>'
p116
aS"Story of cities #13: Barcelona's unloved planner invents science of 'urbanisation'"
p117
aS'<p>Constricted by its medieval walls, Barcelona was suffocating \xe2\x80\x93 until unknown engineer Ildefons Cerd\xc3\xa0 came up with a radical expansion plan. Rival architects disparaged him, yet his scientific approach changed how we think about cities</p><ul><li><a href="http://www.theguardian.com/cities/series/the-story-of-cities">Read more articles in the series here</a></li></ul><p>In the mid-1850s, Barcelona was on the brink of collapse. An industrial city with a busy port, it had grown increasingly dense throughout the industrial revolution, mostly spearheaded by the huge development of the textile sector.</p><p>The city was living at a faster pace than the rest of Spain, and was ready to become a European capital. Yet its population of 187,000 still lived in a tiny area, confined by its medieval walls.</p> <a href="http://www.theguardian.com/cities/2016/apr/01/story-cities-13-eixample-barcelona-ildefons-cerda-planner-urbanisation">Continue reading...</a>'
p118
aS'Story of cities #12: Haussmann rips up Paris \xe2\x80\x93 and divides France to this day'
p119
aS'<p>Georges-Eug\xc3\xa8ne Haussmann is feted internationally for transforming the French capital with an audacious programme of urban planning. Yet 125 years after his death, his legacy at home remains much more controversial. Why?</p><p>He was the Parisian who ripped up his home city; one of the most famous and controversial urban planners in history. Even now, 125 years after the death of Baron Georges-Eug\xc3\xa8ne Haussmann, France remains divided over whether the man who transformed Paris into the City of Light was truly a master planner \xe2\x80\x93 or an imperialist megalomaniac.</p><p>Internationally, Haussmann is celebrated for much that is loved about the French capital; notably those wide avenues flanked with imposing buildings of neatly dressed <a href="https://en.wikipedia.org/wiki/Ashlar">ashlar</a> and intricate wrought iron balconies.</p> <a href="http://www.theguardian.com/cities/2016/mar/31/story-cities-12-paris-baron-haussmann-france-urban-planner-napoleon">Continue reading...</a>'
p120
aS"Clean streets: the mobile laundry service helping Australia's homeless"
p121
aS'<p>Many thought setting up a free laundry service for homeless people out of the back of a van was crazy. Now Orange Sky Laundry operates in six Australian cities, with 450 volunteers</p><p>For two young men from Brisbane who admit to not being very good at doing their washing, launching the world\xe2\x80\x99s first free mobile laundry service for the homeless was perhaps a novel idea. But Nicholas Marchesi and Lucas Patchett, the 21-year-old co-founders of <a href="http://www.orangeskylaundry.com.au/">Orange Sky Laundry</a>, say their initiative is not just about providing freshly cleaned clothes, something most of us take for granted. The service also aims to give rough sleepers the basic human right to hygiene, and restore their dignity and respect.</p><p>\xe2\x80\x9cWe had this crazy idea to chuck a couple of washers in the back of a van,\xe2\x80\x99\xe2\x80\x99 says Marchesi of the project, which kicked off in October 2014. \xe2\x80\x9cOur goal was to connect communities, raise health standards for the homeless and improve the lives of others.\xe2\x80\x9d The laundry-on-wheels now pulls up at parks and drop-in centres in six cities across Australia: Brisbane, Melbourne, Sydney, Perth, Gold Coast and from this week Adelaide, too, as well as areas of southeast Victoria. </p> <a href="http://www.theguardian.com/cities/2016/mar/30/clean-streets-mobile-laundry-service-australia-homeless-orange-sky">Continue reading...</a>'
p122
aS'How is public space changing in European cities?'
p123
aS'<p>From regeneration and grassroots activism to privatisation and security, public space in Europe\xe2\x80\x99s cities is shaped by a variety of urban developments. Share your stories of the changes you\xe2\x80\x99re seeing <a href="https://witness.theguardian.com/assignment/56f16913e4b04098f62c5fb1">with GuardianWitness</a></p><p>There has been a significant backlash recently in London about the loss of public space, as <a href="http://www.theguardian.com/cities/2016/feb/18/park-life-britain-green-spaces-cash-go-ape-battersea">green parks</a>, <a href="http://www.theguardian.com/cities/2015/aug/04/pops-privately-owned-public-space-cities-direct-action">open-air squares</a> and <a href="http://www.theguardian.com/cities/2015/feb/24/private-london-exposed-thames-path-riverside-walking-route">riverside paths</a> become victims of <a href="http://www.theguardian.com/politics/2015/feb/24/the-city-that-privatised-itself-to-death-london-is-now-a-set-of-improbable-sex-toys-poking-gormlessly-into-the-air">private ownership</a>. Last month, campaigners took part in a \xe2\x80\x9c<a href="http://www.theguardian.com/uk-news/2016/feb/13/will-self-mass-trespass-london-protest">mass trespass</a>\xe2\x80\x9d outside City Hall \xe2\x80\x93 a site where even photography may be restricted by private security \xe2\x80\x93 to protest against the chunks of the capital falling into private hands.</p><p>But what is happening in the rest of the continent? Are other urban European spaces becoming more exclusive? Last spring in Belgrade, protestors took to the streets to campaign against the <a href="http://www.theguardian.com/cities/2015/dec/10/belgrade-waterfront-gulf-petrodollars-exclusive-waterside-development">\xe2\x82\xac3.5bn (\xc2\xa32.5bn) redevelopment of the Sava River waterfront</a>, which will include thousands of homes, a business hub and the Balkan\xe2\x80\x99s largest shopping mall \xe2\x80\x93 but residents are concerned that the government-backed project will be a Dubai-style makeover.</p> <a href="http://www.theguardian.com/cities/2016/mar/24/how-is-public-space-changing-in-european-cities">Continue reading...</a>'
p124
aS"Story of cities #9: Kingston, Jamaica \xe2\x80\x93 a city born of 'wickedness' and disaster"
p125
aS'<p>When the devastating earthquake of 1692 ripped through Port Royal, aka the \xe2\x80\x98richest and wickedest city in the world\xe2\x80\x99, a very different Caribbean capital rose up in its place. But could Kingston\xe2\x80\x99s rigid grid plan impose order after the chaos?</p><ul><li><a href="http://www.theguardian.com/cities/series/the-story-of-cities">Read more articles in the series here</a></li></ul><p>Downtown Kingston, the conflicted heart of Jamaica\xe2\x80\x99s modern capital, was born of disaster. A battered pocket watch, its hands frozen at exactly 11:43, memorialises the moment on 7 June 1692 when an earthquake ripped through this English Caribbean colony. Mountains split, buildings shattered and a tsunami swept away uncountable bodies, living and dead, as the earth\xe2\x80\x99s convulsions exhumed corpses from their graves.</p><p>The pocket watch was discovered in 1959 at the bottom of the harbour, where two thirds of the bustling commercial centre of <a href="http://www.bbc.co.uk/news/world-latin-america-18601357">Port Royal</a> was sunk by the earthquake and still lies <a href="http://whc.unesco.org/en/tentativelists/5430/">preserved under water</a>, like a submarine Pompeii.</p> <a href="http://www.theguardian.com/cities/2016/mar/24/story-cities-9-kingston-jamaica-richest-wickedest-city-world">Continue reading...</a>'
p126
aS"'Erase and I will draw again': the struggle behind Cairo's revolutionary graffiti wall"
p127
aS'<p>The graffiti murals that sprang up on the walls of Cairo were a spontaneous reaction to Egypt\xe2\x80\x99s revolution. But, despite their cultural importance, they\xe2\x80\x99re being demolished in an attempt to clean up the city ... or is it to erase the past?</p><p>Ammar Abo Bakr came for the revolution, and stayed for the graffiti. On 25 January 2011, the fine art professor was sitting at home in Luxor when he saw YouTube videos of protests gathering in Tahrir Square. Two hours later, he was on the train to Cairo to join them. As those demonstrations wore on, he picked up a spray can.<br></p><p>\xe2\x80\x9cBack then, I just did simple things, like anyone would make \xe2\x80\x93 spraying messages on the wall,\xe2\x80\x9d he says. \xe2\x80\x9cI liked how the walls were like a newspaper; people wrote things like, \xe2\x80\x98Don\xe2\x80\x99t go down this street, there are <em>baltageya</em> [plainclothes thugs] down here\xe2\x80\x99.\xe2\x80\x9d</p> <a href="http://www.theguardian.com/cities/2016/mar/23/struggle-cairo-egypt-revolutionary-graffiti">Continue reading...</a>'
p128
aS"Story of cities #8: St Petersburg \xe2\x80\x93\xc2\xa0is the 'city built on bones' starting to crumble?"
p129
aS'<p>Built on a swamp at the cost of thousands of lives, Peter the Great\xe2\x80\x99s \xe2\x80\x98antidote to Moscow\xe2\x80\x99 has survived uprisings, sieges and floods to become Europe\xe2\x80\x99s third largest city. But is history now catching up with St Petersburg?</p><p>On 16 May 1703, while looking over sparse marshlands near the mouth of the Baltic Sea that he had taken from the Swedes, Tsar Peter the Great cut two strips of turf from Hare\xe2\x80\x99s Island on the Neva river, laid them in a cross and declared: \xe2\x80\x9cLet there be a city here.\xe2\x80\x9d As he spoke, an eagle appeared overhead in an auspicious omen.</p><p>Or at least that\xe2\x80\x99s the myth of St Petersburg\xe2\x80\x99s founding. In reality, Peter the Great wasn\xe2\x80\x99t even there, and most likely neither was the eagle. It was a group of soldiers under the command of his friend, General Alexander Menshikov, who began building what would become the <a href="http://www.saint-petersburg.com/museums/peter-paul-fortress/">Peter and Paul Fortress</a> on Hare\xe2\x80\x99s Island in May 1703. The tsar only arrived the following month.</p> <a href="http://www.theguardian.com/cities/2016/mar/23/story-of-cities-8-st-petersburg-city-built-on-bones-starting-to-crumble">Continue reading...</a>'
p130
aS"Poetry or property punts: what's driving China's love affair with Cambridge?"
p131
aS'<p>House prices in Cambridge have risen 50% since 2010 \xe2\x80\x93 caused in part by Chinese investors whose passion for the city may have begun with a poem they learned at school. But what do local residents make of this romantic vision?</p><p>On the edge of Scholar\xe2\x80\x99s Piece, the strip of farmland just behind King\xe2\x80\x99s College, lies a granite stone which has become arguably Cambridge\xe2\x80\x99s most coveted tourist attraction. <br></p><p>For the many students who amble past it every day, it\xe2\x80\x99s easily missed; placed rather innocuously next to the bridge that joins Scholar\xe2\x80\x99s Piece to the rest of the college. But for the thousands of Chinese tourists who travel to Cambridge every year, it is this, rather than the city\xe2\x80\x99s grand 15th-century chapel, meticulously manicured lawns or historical statues, that they\xe2\x80\x99ve come to see.</p> <a href="http://www.theguardian.com/cities/2016/mar/22/china-cambridge-university-poet-xu-zhimo-farewell-property">Continue reading...</a>'
p132
aS"Story of cities #6: how silver turned Potos\xc3\xad into 'the first city of capitalism'"
p133
aS'<p>The discovery of a mountain of silver (and a new way to extract it) transformed this remote Incan hamlet into the economic centre of Spain\xe2\x80\x99s empire \xe2\x80\x93 larger than London, Milan or Seville. But then the silver ran out \xe2\x80\xa6</p><ul><li><a href="http://www.theguardian.com/cities/series/the-story-of-cities">Read more articles in the series here</a></li></ul><p>\xe2\x80\x9c<em>For the powerful emperor, for the wise king, this lofty mountain of silver could conquer the world.</em>\xe2\x80\x9d So read the engraving on an ornate shield sent by Spain\xe2\x80\x99s King Felipe II in 1561 as a gift to the city of Potos\xc3\xad, in what is now southern Bolivia.</p><p>Felipe was all too aware of the vast riches hidden beneath this remote Andean settlement. The <em>conquistadors</em> may never have found El Dorado, but they did find a mound of silver so large it would turn an isolated Incan hamlet into the fourth largest city in the Christian world in just 70 years, fund the creation of the most advanced industrial complex of its era, and define economic fortunes from China to western Europe.</p> <a href="http://www.theguardian.com/cities/2016/mar/21/story-of-cities-6-potosi-bolivia-peru-inca-first-city-capitalism">Continue reading...</a>'
p134
aS"Outsourcing pregnancy: a visit to India's surrogacy clinics | Julie Bindel"
p135
aS'<p>Julie Bindel, a strident opponent of surrogacy, travelled to India to find out more about a practice worth an estimated \xc2\xa3690m a year on the subcontinent </p><p> In Ahmedabad, Gujarat, my driver is looking for one of the city\xe2\x80\x99s IVF clinics. We turn on to a busy main road and I spot a sign on a crumbling wall reading \xe2\x80\x9ctest tube babies\xe2\x80\x9d.</p><p> I climb the filthy stairwell and enter a small, dark reception area. In the adjoining room I spot a hospital stretcher and shelves full of metal petri dishes, forceps and hypodermic needles.</p> <a href="http://www.theguardian.com/global-development/2016/apr/01/outsourcing-pregnancy-india-surrogacy-clinics-julie-bindel">Continue reading...</a>'
p136
aS'The menstruating Nepalese women confined to a cowshed - video'
p137
aS'<p>In parts of rural western Nepal, women are forced to live in cowsheds during their periods and immediately after childbirth. The practice, known as Chhaupadi, is linked to disease and even the deaths of babies, who stay with their mothers in the sheds. But a local shaman \xe2\x80\x93 and some of the women \xe2\x80\x93 insist Chhaupadi is the will of the gods and cannot be changed</p><ul><li><a href="http://www.theguardian.com/global-development/2016/apr/01/nepal-bleeding-shame-menstruating-women-banished-cattle-sheds">Nepal\xe2\x80\x99s bleeding shame: menstruating women banished to cattle sheds</a><br></li></ul> <a href="http://www.theguardian.com/global-development/video/2016/apr/01/menstruating-nepalese-women-confined-to-a-cowshed-video">Continue reading...</a>'
p138
aS'Nepal\xe2\x80\x99s bleeding shame: menstruating women banished to cattle sheds | Kate Hodal'
p139
aS'<p>Though banned, the centuries-old custom of confining women to a cowshed during their period persists in Nepal, with damaging and even fatal results</p><ul><li><a href="http://www.theguardian.com/global-development/video/2016/apr/01/menstruating-nepalese-women-confined-to-a-cowshed-video">The menstruating Nepalese women confined to a cowshed \xe2\x80\x93 video</a> </li></ul><p>For five consecutive days each month, Sofalta Rokaya leaves the bed in her home in western Nepal to sleep among her family\xe2\x80\x99s cows. The stone shed they share is dark and filthy, freezing in the winter and sweltering in the summer, and littered with hay, muck, insects and dung.</p><p>Sofalta, 16, was terrified to tell her parents once she started menstruating. \xe2\x80\x9c[It] would mean staying in the cowshed, and I didn\xe2\x80\x99t know if I could do it,\xe2\x80\x9d she says. \xe2\x80\x9cI feel horrible here \xe2\x80\x93 the cow dung smells and the animals step on us. The dirt and hay get stuck all over my body.</p> <a href="http://www.theguardian.com/global-development/2016/apr/01/nepal-bleeding-shame-menstruating-women-banished-cattle-sheds">Continue reading...</a>'
p140
aS'UK aid budget swelling coffers of private firms, claims campaign group'
p141
aS'<p>Award of aid-funded contracts worth \xc2\xa3450m to London-based consultancy shows funds are being diverted from poor, says Global Justice Now report</p><p>The British government is undermining its commitment to tackle poverty in the developing world by spending hundreds of millions of pounds of aid through a handful of UK-based consultancy firms, according to a report from the campaigning group <a href="http://www.globaljustice.org.uk/">Global Justice Now</a> (GJN).</p><p>The study, which focuses on the work of <a href="http://www.adamsmithinternational.com/">Adam Smith International</a> (ASI), says the use of consultancies diverts aid money from those in greatest need, with the authors accusing the <a href="http://www.theguardian.com/politics/department-for-international-development-dfid">Department for International Development</a> (DfID) of a \xe2\x80\x9cshift towards the private sector\xe2\x80\x9d. The report also questions how such spending sits with the UK\xe2\x80\x99s 2001 decision to \xe2\x80\x9cuntie\xe2\x80\x9d its aid from British commercial interests. </p> <a href="http://www.theguardian.com/global-development/2016/apr/01/uk-aid-budget-consultancy-firms-campaign-group-global-justice-now">Continue reading...</a>'
p142
aS'Egyptian feminist leader Mozn Hassan resolute in face of official investigation'
p143
aS'<p>Nazra for Feminist Studies head receives widespread support over claims NGO is illegal as crackdown on Egyptian civil society is condemned<br></p><p>The head of a women\xe2\x80\x99s rights organisation remained defiant after becoming the focus of an investigation launched by the Egyptian authorities as part of its ongoing crackdown on civil society. </p><p>Mozn Hassan, executive director of <a href="http://nazra.org/en">Nazra for Feminist Studies</a>, said the group would continue to work, regardless of what happened to her.</p> <a href="http://www.theguardian.com/global-development/2016/mar/31/egyptian-feminist-leader-mozn-hassan-resolute-investigation">Continue reading...</a>'
p144
aS'Turning bombs into spoons \xe2\x80\x93 relics of the secret US war in Laos | John Dennehy'
p145
aS'<p>US bombing campaigns of the 60s and 70s left a terrible legacy. But more aid for ordnance clearing could mean this generation of spoon makers are the last</p><p>La lok Phengparkdee has been turning bombs into spoons since he was eight. He lives in Ban Napia and works with the relics of the <a href="http://www.theguardian.com/world/2015/jan/31/laos-deadly-aftermath-us-bomb-campaign-vietnam-air-attacks">secret war waged by the US</a> in this tiny country while the world\xe2\x80\x99s attention was focused next door on Vietnam.</p><p>For nine years during the 60s and 70s, the US unleashed millions of bombs on Laos, making it the <a href="http://www.theguardian.com/world/2008/dec/03/laos-cluster-bombs-uxo-deaths">most bombed nation on earth</a>. Ban Napia, in Xiang Khouang province in the north-east, is known as the war spoon village.</p> <a href="http://www.theguardian.com/global-development/2016/mar/31/turning-bombs-into-spoons-after-the-us-war-on-laos">Continue reading...</a>'
p146
aS"Migrant workers suffer 'appalling treatment' in Qatar World Cup stadiums, says Amnesty"
p147
aS'<p>Amnesty report accuses Fifa and Qatari authorities of ongoing indifference to systemic abuse of workers on stadiums that will host the 2022 World Cup</p><p>Despite <a href="http://www.theguardian.com/world/2014/dec/23/qatar-nepal-workers-world-cup-2022-death-toll-doha">five years of growing criticism</a>, Fifa and the Qatari authorities have been accused of ongoing indifference towards systemic abuse and \xe2\x80\x9cappalling treatment\xe2\x80\x9d of migrant workers working on stadiums that will host the 2022 World Cup.</p><p>A damning new report by Amnesty International, which interviewed 132 contractors working on refurbishing the Khalifa International Stadium in Doha and a further 102 landscapers who work in the Aspire Zone sports complex that surrounds it, claimed that they all reported human rights abuses of one kind or another.</p> <a href="http://www.theguardian.com/global-development/2016/mar/31/migrant-workers-suffer-appalling-treatment-in-qatar-world-cup-stadiums-says-amnesty">Continue reading...</a>'
p148
aS'Shell faces corruption probe over $1bn oil deal in Nigeria'
p149
aS'<p>Italian officials to investigate company\xe2\x80\x99s role in acquisition of disputed oil block jointly owned with energy group Eni </p><p>Italian anti-corruption investigators have opened a formal investigation into Shell\xe2\x80\x99s acquisition of a stake in a $1.09bn (\xc2\xa3755m) oil block in Nigeria.<br></p><p>Shell co-owns the offshore oil block with the Italian energy group Eni. </p> <a href="http://www.theguardian.com/global-development/2016/mar/30/shell-faces-corruption-probe-over-1bn-oil-deal-in-nigeria">Continue reading...</a>'
p150
aS'El Ni\xc3\xb1o worsens food shortages in Malawi and Zimbabwe \xe2\x80\x93 podcast transcript'
p151
aS'<p>Lucy Lamble reports from southern Africa on the recurring droughts, exacerbated by an unusually strong El Ni\xc3\xb1o, that are causing a severe lack of food </p><ul><li><a href="http://www.theguardian.com/global-development/audio/2016/mar/30/drought-new-normal-el-nino-worsens-food-shortages-malawi-zimbabwe-africa-podcast">Listen to the podcast</a></li></ul><p><strong>LL</strong> Lucy Lamble<br></p><p><strong> JL</strong> Juliana Lunguzi </p> <a href="http://www.theguardian.com/global-development/2016/mar/30/el-nino-worsens-drought-food-shortages-malawi-zimbabwe-podcast-transcript">Continue reading...</a>'
p152
aS"Rio Olympics: view from the favelas \xe2\x80\x93 'The closer the gunshots, the stronger my heart beats' | Daiene Mendes"
p153
aS'<p>Continuing our series of diary entries on life in Alem\xc3\xa3o ahead of the Games, Daiene Mendes reflects on continued violence but also on the success of an annual street event celebrating the favela</p><p>Five years after the <a href="http://www.theguardian.com/world/2011/nov/13/rio-raid-rocinha-drug-wars-brazil">massive police raid in Alem\xc3\xa3o</a>, the image that was seen around the world of drug dealers escaping on a dirt road at the top of the hill is still common on TV. Today, TV Globo announced they will be showing a new <a href="http://redeglobo.globo.com/novidades/noticia/2016/01/alemao-os-dois-lados-do-complexo-estreia-no-proximo-dia-12-na-globo.html">mini-series about the authorities\xe2\x80\x99 invasion</a>. The plot revolves around five undercover police who have their identities revealed and find themselves surrounded by drug dealers, while security forces are about to enter the community. The news of the dramatisation stirred up a debate on social media, with residents from all corners of Alem\xc3\xa3o commenting on the series. Some said it was wrong to transform a violent conflict into a sellable spectacle. Others were delighted that their homes would get attention from the most popular TV station in the region. One commentator wrote that even if the narrative was violent, it would be nice to see Alem\xc3\xa3o on TV. I\xe2\x80\x99d like to understand why the media hardly ever reports on the good things that happen in favelas \xe2\x80\x93 but when the topic is violence, it\xe2\x80\x99s on the front page.</p> <a href="http://www.theguardian.com/global-development/2016/mar/30/rio-olympics-view-from-the-favelas-the-closer-the-gunshots-the-stronger-my-heart-beats">Continue reading...</a>'
p154
aS'How to stop Donald Trump: women may hold the solution'
p155
aS'<p>A recent poll found 70% of women had a negative view of the Republican, and the ranks of single women \xe2\x80\x93 who tend to vote Democratic \xe2\x80\x93 are growing</p><p>Forget Ted Cruz\xe2\x80\x99s rhetorical flourish, Bernie Sanders\xe2\x80\x99 idealism and Hillary Clinton\xe2\x80\x99s steady hand. <a href="http://www.theguardian.com/us-news/2016/mar/31/donald-trump-abortion-comments-women-history-of-misogyny">The only thing that can #StopDonaldTrump</a> isn\xe2\x80\x99t a candidate, it\xe2\x80\x99s a segment of the electorate \xe2\x80\x93 and a very particular one at that.<br></p><p>Women are poised to play a critically important role in the presidential election, and not just because they make up 52% of the voters. To understand what\xe2\x80\x99s happening in this election, you have to focus in on marriage, and particularly on the fact that more than ever before, women are delaying it.<br></p> <a href="http://www.theguardian.com/us-news/2016/apr/02/donald-trump-women-female-voters-never-trump-movement">Continue reading...</a>'
p156
aS"Donald Trump's most recent attacks on women point to a history of misogyny"
p157
aS'<p>Trump\xe2\x80\x99s abortion comments caused outrage this week, but incidents ranging from offensive remarks to assault allegations have been persistent in his career</p><p>A succession of disturbing attacks on women have raised <a draggable="true" href="http://www.theguardian.com/us-news/2016/mar/31/donald-trump-abortion-remarks-biggest-campaign-crisis">fresh questions about Donald Trump\xe2\x80\x99s credibility</a> as a presidential candidate and are an ugly reminder of his long-standing deeply questionable attitudes.</p><p>In the space of a single week he has <a draggable="true" href="http://www.theguardian.com/us-news/2016/mar/23/donald-trump-threatens-to-spill-the-beans-on-ted-cruzs-wife-amid-naked-photo-row">insulted an opponent\xe2\x80\x99s wife\xe2\x80\x99s looks</a>, <a draggable="true" href="http://www.theguardian.com/us-news/2016/mar/11/donald-trump-reporter-assault-michelle-fields-corey-lewandowski">defended an aide</a> for manhandling a female reporter and said women should be <a draggable="true" href="http://www.theguardian.com/us-news/live/2016/mar/30/donald-trump-punishment-abortion-hillary-clinton-bernie-sanders">punished for having abortions</a>.</p> <a href="http://www.theguardian.com/us-news/2016/mar/31/donald-trump-abortion-comments-women-history-of-misogyny">Continue reading...</a>'
p158
aS'Who will succeed Ban Ki-moon? A guide to the possible candidates'
p159
aS'<p>The UN secretary general\xe2\x80\x99s term is up at the end of this year. Here are some of the confirmed and possible runners and riders in the organisation\xe2\x80\x99s <a href="http://www.theguardian.com/world/2016/mar/30/un-general-secretary-candidates-compete-public-first-time">first open contest</a> for its next head</p><p><strong>Ant\xc3\xb3nio Guterres</strong></p> <a href="http://www.theguardian.com/world/2016/mar/30/who-will-succeed-ban-ki-moon-a-guide-to-the-possible-candidates">Continue reading...</a>'
p160
aS'Donald Trump or Mark Latham? Which pugnacious politician said it \xe2\x80\x93 quiz'
p161
aS'<p>Former Australian opposition leader Mark Latham has backed the US Republican frontrunner, sparking comparisons between the two. Can you separate Sydney\xe2\x80\x99s suburban warrior from the Manhattan billionaire?</p><p> <span>Related: </span><a href="http://www.theguardian.com/us-news/2016/mar/29/donald-trump-wins-backing-of-former-australian-labor-leader-mark-latham">Donald Trump wins backing of former Australian Labor leader Mark Latham</a> </p><p>Former Labor leader Mark Latham <a draggable="true" href="http://www.theguardian.com/us-news/2016/mar/29/donald-trump-wins-backing-of-former-australian-labor-leader-mark-latham">has thrown his weight behind</a> the Republican presidential candidate Donald Trump. In Sydney\xe2\x80\x99s Daily Telegraph, Latham acknowledged that Trump was \xe2\x80\x9cby no means perfect\xe2\x80\x9d, but said his foreign policy was in Australia\xe2\x80\x99s national interest: \xe2\x80\x9cI much prefer his approach to the lying snakes of machine politics and media manipulation.\xe2\x80\x9d</p> <a href="http://www.theguardian.com/australia-news/2016/mar/30/donald-trump-or-mark-latham-who-said-it-quiz">Continue reading...</a>'
p162
aS'EgyptAir hijacking another blow for Egyptian airport authorities'
p163
aS'<p>Relief that incident not terror-related but that will provide little reassurance for travellers</p><p>Despite the somewhat farcical nature of <a draggable="true" href="http://www.theguardian.com/world/2016/mar/29/hijacked-egyptair-passenger-plane-lands-in-cyprus-reports">the EgyptAir hijacking</a>, which has now come to a peaceful conclusion, any aeroplane incident is liable to raise more concerns in the mind of the travelling public.</p><p>The bombing of the Russian Metrojet airliner in October, and subsequent questions about the efficacy of Egypt\xe2\x80\x99s aviation security, virtually ended the tourism industry in its Red Sea resorts. So Egyptian authorities will doubtless be mightily relieved that Tuesday\xe2\x80\x99s hijacking does not have links to Isis-related terror \xe2\x80\x93 as one official told the Guardian, not a terrorist, just an idiot. <br tabindex="-1"></p> <a href="http://www.theguardian.com/world/2016/mar/29/egyptair-hijacking-another-blow-egyptian-airport-authorities">Continue reading...</a>'
p164
aS"Obama: Trump doesn't know much about nuclear policy, or the world \xe2\x80\x93 video"
p165
aS'<p>President Obama said on Friday that Donald Trump\xe2\x80\x99s recent comments that South Korea and Japan should acquire nuclear weapons show the leading Republican presidential candidate is not well informed on international relations. \xe2\x80\x98What the statements you mentioned tell us \xe2\x80\x93 they tell us that the person who made the statements doesn\xe2\x80\x99t know much about foreign policy or nuclear policy or the Korean peninsula, or the world, generally,\xe2\x80\x99 Obama told a news conference at the conclusion of a nuclear security summit </p> <a href="http://www.theguardian.com/world/video/2016/apr/01/obama-trump-doesnt-know-much-about-nuclear-policy-or-the-world-video">Continue reading...</a>'
p166
aS'Suspected drug smugglers scale US-Mexico border fence \xe2\x80\x93 video'
p167
aS'<p>Two men were caught on video as they shimmied down the border fence which separates the United States and Mexico into Nogales, Arizona, within sight of US border patrol agents. A camera crew from the Mexican television network TV Azteca was filming a story for their daily broadcast when they saw two men, both carrying large bundles on their backs. When the men noticed they were being filmed they climbed the fence back into Mexico. It is assumed that the two were attempting to smuggle illegal drugs across the border from Mexico into the US</p> <a href="http://www.theguardian.com/world/video/2016/apr/01/us-mexico-border-fence-video-suspected-drug-smugglers">Continue reading...</a>'
p168
aS'Obama highlights danger of nuclear terrorism at summit - video'
p169
aS'<p>Speaking at the nuclear security summit on Friday, President Barack Obama warns that \xe2\x80\x98madmen\xe2\x80\x99, including Islamic State, threaten global security. The president says extremist groups and leaders have been trying to acquire nuclear material and would potentially kill hundreds of thousands of innocent civilians. While he believes that the world has reduced the risk of nuclear terrorism by taking \xe2\x80\x9cconcrete, tangible steps\xe2\x80\x9d, the president urges more action on properly securing nuclear material </p><ul><li><a href="http://www.theguardian.com/us-news/2016/apr/01/obama-nuclear-security-summit-stop-madmen-isis-terrorism">Obama at nuclear summit: \xe2\x80\x98madmen\xe2\x80\x99 threaten global security</a></li></ul> <a href="http://www.theguardian.com/us-news/video/2016/apr/01/obama-highlights-danger-of-nuclear-terrorism-at-summit-video">Continue reading...</a>'
p170
aS'Hillary Clinton lashes out: \xe2\x80\x98I\xe2\x80\x99m sick of Sanders campaign\xe2\x80\x99s lies\xe2\x80\x99 - video'
p171
aS'<p>Democratic presidential frontrunner Hillary Clinton loses her patience with a Greenpeace activist who asked her whether she will reject money from the petroleum industry. Coming face-to-face with the activist after a rally in New York, Clinton says she only takes money from people working for companies involved in fossil-fuel and accused Bernie Sanders\xe2\x80\x99 campaign for spreading lies</p><ul><li><a href="http://www.theguardian.com/us-news/live/2016/mar/31/us-election-2016-live-trump-cruz-kasich-clinton-sanders-campaign">Hillary Clinton: \xe2\x80\x98I\xe2\x80\x99m sick of the Sanders campaign\xe2\x80\x99s lies\xe2\x80\x99 \xe2\x80\x93 as it happened</a><br></li></ul> <a href="http://www.theguardian.com/us-news/video/2016/apr/01/hillary-clinton-lashes-out-im-sick-of-sanders-campaigns-lies--video">Continue reading...</a>'
p172
aS'Brussels divided: Molenbeek after the terrorist attacks \xe2\x80\x93 video'
p173
aS'<p>Brussels has been in a high state of tension since the 22 March terrorist attacks. As far-right groups protest at the memorial in Place de la Bourse, the neighbourhood of Molenbeek has become notorious as the place where several terrorists have been recruited. Iman Amrani speaks to young people in Europe\xe2\x80\x99s capital about life after the terrorist attacks</p><ul><li><strong>WARNING: This video contains violence</strong><br></li></ul> <a href="http://www.theguardian.com/world/video/2016/apr/01/brussels-divided-molenbeek-after-the-terrorist-attacks-video">Continue reading...</a>'
p174
aS'Arizona man in high-speed police chase after attempted carjacking \xe2\x80\x93 video'
p175
aS'<p>Aerial footage from NBC affiliate KPNX captured a man attempting to carjack a motorcyclist, pulling him off his bike and unsuccessfully fighting him before speeding off in a white pickup truck. The man then led police on a high-speed chase though the East Valley near Phoenix before rolling over into oncoming traffic lanes. KPNX reported the suspect was wanted for a hit-and-run earlier this month in Tucson</p> <a href="http://www.theguardian.com/us-news/news-blog/video/2016/mar/31/police-high-speed-chase-arizona-carjacking">Continue reading...</a>'
p176
a.